
0.39.0 (for architecture armv7):
_ABAddressBookAddRecord
_ABAddressBookCopyArrayOfAllGroups
_ABAddressBookCopyArrayOfAllPeople
_ABAddressBookCopyLocalizedLabel
_ABAddressBookCopyPeopleWithName
_ABAddressBookCreateWithOptions
_ABAddressBookGetGroupWithRecordID
_ABAddressBookGetPersonWithRecordID
_ABAddressBookHasUnsavedChanges
_ABAddressBookRemoveRecord
_ABAddressBookSave
_ABGroupAddMember
_ABGroupCopyArrayOfAllMembers
_ABGroupCreate
_ABGroupRemoveMember
_ABMultiValueAddValueAndLabel
_ABMultiValueCopyLabelAtIndex
_ABMultiValueCopyValueAtIndex
_ABMultiValueCreateMutable
_ABMultiValueCreateMutableCopy
_ABMultiValueGetCount
_ABMultiValueGetIdentifierAtIndex
_ABMultiValueGetIndexForIdentifier
_ABMultiValueGetPropertyType
_ABMultiValueInsertValueAndLabelAtIndex
_ABMultiValueRemoveValueAndLabelAtIndex
_ABMultiValueReplaceLabelAtIndex
_ABMultiValueReplaceValueAtIndex
_ABPersonCopyImageData
_ABPersonCopyLocalizedPropertyName
_ABPersonCreate
_ABPersonGetCompositeNameFormat
_ABPersonGetTypeOfProperty
_ABPersonRemoveImageData
_ABPersonSetImageData
_ABRecordCopyCompositeName
_ABRecordCopyValue
_ABRecordGetRecordID
_ABRecordRemoveValue
_ABRecordSetValue
_AVAudioSessionCategoryAmbient
_AVAudioSessionCategoryAudioProcessing
_AVAudioSessionCategoryMultiRoute
_AVAudioSessionCategoryPlayAndRecord
_AVAudioSessionCategoryPlayback
_AVAudioSessionCategoryRecord
_AVAudioSessionCategorySoloAmbient
_AVAudioSessionInterruptionNotification
_AVAudioSessionInterruptionTypeKey
_AVAudioSessionMediaServicesWereResetNotification
_AVAudioSessionPortBuiltInReceiver
_AVAudioSessionRouteChangeNotification
_AVAudioSessionRouteChangePreviousRouteKey
_AVAudioSessionRouteChangeReasonKey
_AVCaptureSessionPreset1280x720
_AVCaptureSessionPreset1920x1080
_AVCaptureSessionPreset352x288
_AVCaptureSessionPreset640x480
_AVCaptureSessionPresetHigh
_AVLayerVideoGravityResizeAspect
_AVLayerVideoGravityResizeAspectFill
_AVMediaTypeAudio
_AVMediaTypeVideo
_AVPlayerItemDidPlayToEndTimeNotification
_AudioComponentFindNext
_AudioComponentInstanceDispose
_AudioComponentInstanceNew
_AudioFileClose
_AudioFileGetProperty
_AudioFileGetPropertyInfo
_AudioFileOpenWithCallbacks
_AudioFileReadPacketData
_AudioOutputUnitStart
_AudioOutputUnitStop
_AudioQueueAllocateBuffer
_AudioQueueAllocateBufferWithPacketDescriptions
_AudioQueueDispose
_AudioQueueEnqueueBuffer
_AudioQueueFlush
_AudioQueueNewOutput
_AudioQueueOfflineRender
_AudioQueueSetOfflineRenderFormat
_AudioQueueSetProperty
_AudioQueueStart
_AudioQueueStop
_AudioServicesPlaySystemSound
_AudioUnitGetProperty
_AudioUnitInitialize
_AudioUnitRender
_AudioUnitSetProperty
_AudioUnitUninitialize
_CBAdvertisementDataServiceDataKey
_CBCentralManagerOptionShowPowerAlertKey
_CBCentralManagerScanOptionAllowDuplicatesKey
_CBErrorDomain
_CCCryptorCreate
_CCCryptorCreateWithMode
_CCCryptorFinal
_CCCryptorGetOutputLength
_CCCryptorRelease
_CCCryptorUpdate
_CC_MD5
_CC_SHA1
_CC_SHA1_Final
_CC_SHA1_Init
_CC_SHA1_Update
_CC_SHA256
_CC_SHA512
_CFDataGetBytePtr
_CFDataGetLength
_CFEqual
_CFHash
_CFRelease
_CFRetain
_CFRunLoopGetCurrent
_CFStringAppendCharacters
_CFStringCreateWithCharacters
_CFStringGetCString
_CFStringGetCStringPtr
_CFStringGetCharactersPtr
_CFURLCreateStringByAddingPercentEscapes
_CFURLGetFileSystemRepresentation
_CFUUIDCreate
_CFUUIDCreateFromUUIDBytes
_CFUUIDCreateString
_CFUUIDGetUUIDBytes
_CGAffineTransformConcat
_CGAffineTransformIdentity
_CGAffineTransformInvert
_CGAffineTransformMakeRotation
_CGAffineTransformMakeScale
_CGAffineTransformMakeTranslation
_CGAffineTransformRotate
_CGAffineTransformScale
_CGBitmapContextCreate
_CGBitmapContextCreateImage
_CGColorCreate
_CGColorSpaceCreateDeviceGray
_CGColorSpaceCreateDeviceRGB
_CGColorSpaceRelease
_CGContextAddLineToPoint
_CGContextAddPath
_CGContextBeginPath
_CGContextClipToMask
_CGContextClosePath
_CGContextConcatCTM
_CGContextDrawImage
_CGContextDrawLinearGradient
_CGContextFillEllipseInRect
_CGContextFillPath
_CGContextFillRect
_CGContextMoveToPoint
_CGContextRelease
_CGContextRestoreGState
_CGContextRetain
_CGContextSaveGState
_CGContextScaleCTM
_CGContextSetBlendMode
_CGContextSetFillColorWithColor
_CGContextSetInterpolationQuality
_CGContextSetLineWidth
_CGContextSetShadowWithColor
_CGContextSetShouldAntialias
_CGContextSetStrokeColorWithColor
_CGContextStrokePath
_CGContextTranslateCTM
_CGDataProviderCreateWithFilename
_CGDataProviderRelease
_CGFontCreateWithDataProvider
_CGFontRelease
_CGGradientCreateWithColorComponents
_CGGradientRelease
_CGImageRelease
_CGPathAddRoundedRect
_CGPathCreateMutable
_CGPathRelease
_CGRectDivide
_CGRectEqualToRect
_CGRectGetHeight
_CGRectGetMaxX
_CGRectGetMaxY
_CGRectGetMidY
_CGRectGetMinX
_CGRectGetMinY
_CGRectGetWidth
_CGRectInset
_CGRectIntegral
_CGRectOffset
_CGRectUnion
_CGRectZero
_CMSampleBufferGetImageBuffer
_CMSampleBufferGetPresentationTimeStamp
_CMTimeCompare
_CMTimeGetSeconds
_CMTimeMake
_CMTimeMakeWithSeconds
_CMTimeRangeMake
_CTFontDescriptorCopyAttribute
_CTFontDescriptorCreateMatchingFontDescriptor
_CTFontDescriptorCreateWithAttributes
_CTFontManagerRegisterGraphicsFont
_CVMetalTextureCacheCreate
_CVMetalTextureCacheCreateTextureFromImage
_CVMetalTextureCacheFlush
_CVMetalTextureGetTexture
_CVMetalTextureIsFlipped
_CVOpenGLESTextureCacheCreate
_CVOpenGLESTextureCacheCreateTextureFromImage
_CVOpenGLESTextureCacheFlush
_CVOpenGLESTextureGetName
_CVOpenGLESTextureIsFlipped
_CVPixelBufferCreate
_CVPixelBufferGetBaseAddress
_CVPixelBufferGetBytesPerRow
_CVPixelBufferGetHeight
_CVPixelBufferGetWidth
_CVPixelBufferLockBaseAddress
_CVPixelBufferUnlockBaseAddress
_MPMovieMediaTypesAvailableNotification
_MPMovieNaturalSizeAvailableNotification
_MPMoviePlayerDidExitFullscreenNotification
_MPMoviePlayerPlaybackDidFinishNotification
_MPMovieSourceTypeAvailableNotification
_NDR_record
_NSBuddhistCalendar
_NSChineseCalendar
_NSClassFromString
_NSDefaultRunLoopMode
_NSDeletedObjectsKey
_NSFilePosixPermissions
_NSFileSize
_NSFontAttributeName
_NSForegroundColorAttributeName
_NSFoundationVersionNumber
_NSGenericException
_NSGetUncaughtExceptionHandler
_NSGregorianCalendar
_NSHTTPCookieExpires
_NSHebrewCalendar
_NSISO8601Calendar
_NSInMemoryStoreType
_NSIndianCalendar
_NSInsertedObjectsKey
_NSInternalInconsistencyException
_NSInvalidArgumentException
_NSIslamicCalendar
_NSIslamicCivilCalendar
_NSJapaneseCalendar
_NSKeyValueChangeNewKey
_NSLocaleCountryCode
_NSLocaleCurrencyCode
_NSLocalizedDescriptionKey
_NSLocalizedFailureReasonErrorKey
_NSLog
_NSLogv
_NSMachErrorDomain
_NSManagedObjectContextDidSaveNotification
_NSPOSIXErrorDomain
_NSPersianCalendar
_NSRepublicOfChinaCalendar
_NSRunLoopCommonModes
_NSSQLiteStoreType
_NSSearchPathForDirectoriesInDomains
_NSSelectorFromString
_NSSetUncaughtExceptionHandler
_NSStreamFileCurrentOffsetKey
_NSStringFromClass
_NSStringFromSelector
_NSTemporaryDirectory
_NSURLAuthenticationMethodServerTrust
_NSURLContentModificationDateKey
_NSURLErrorDomain
_NSURLErrorFailingURLStringErrorKey
_NSURLFileSizeKey
_NSURLSessionDownloadTaskResumeData
_NSURLSessionTransferSizeUnknown
_NSUnderlyingErrorKey
_NSUpdatedObjectsKey
_NSUserDefaultsDidChangeNotification
_NXGetLocalArchInfo
_OBJC_CLASS_$_ADBannerView
_OBJC_CLASS_$_ADInterstitialAd
_OBJC_CLASS_$_ASIdentifierManager
_OBJC_CLASS_$_AVAssetReader
_OBJC_CLASS_$_AVAssetReaderTrackOutput
_OBJC_CLASS_$_AVAudioSession
_OBJC_CLASS_$_AVCaptureDevice
_OBJC_CLASS_$_AVCaptureDeviceInput
_OBJC_CLASS_$_AVCaptureSession
_OBJC_CLASS_$_AVCaptureVideoDataOutput
_OBJC_CLASS_$_AVMutableAudioMix
_OBJC_CLASS_$_AVMutableAudioMixInputParameters
_OBJC_CLASS_$_AVPlayer
_OBJC_CLASS_$_AVPlayerItem
_OBJC_CLASS_$_AVPlayerLayer
_OBJC_CLASS_$_AVURLAsset
_OBJC_CLASS_$_CADisplayLink
_OBJC_CLASS_$_CAEAGLLayer
_OBJC_CLASS_$_CATransaction
_OBJC_CLASS_$_CBCentralManager
_OBJC_CLASS_$_CBUUID
_OBJC_CLASS_$_CLGeocoder
_OBJC_CLASS_$_CLLocation
_OBJC_CLASS_$_CLLocationManager
_OBJC_CLASS_$_CMMotionActivityManager
_OBJC_CLASS_$_CMMotionManager
_OBJC_CLASS_$_CTTelephonyNetworkInfo
_OBJC_CLASS_$_EAGLContext
_OBJC_CLASS_$_MPMoviePlayerController
_OBJC_CLASS_$_NSArray
_OBJC_CLASS_$_NSAssertionHandler
_OBJC_CLASS_$_NSAttributeDescription
_OBJC_CLASS_$_NSAutoreleasePool
_OBJC_CLASS_$_NSBlockOperation
_OBJC_CLASS_$_NSBundle
_OBJC_CLASS_$_NSCachedURLResponse
_OBJC_CLASS_$_NSCalendar
_OBJC_CLASS_$_NSCharacterSet
_OBJC_CLASS_$_NSCompoundPredicate
_OBJC_CLASS_$_NSCondition
_OBJC_CLASS_$_NSData
_OBJC_CLASS_$_NSDate
_OBJC_CLASS_$_NSDateFormatter
_OBJC_CLASS_$_NSDictionary
_OBJC_CLASS_$_NSEntityDescription
_OBJC_CLASS_$_NSEnumerator
_OBJC_CLASS_$_NSError
_OBJC_CLASS_$_NSException
_OBJC_CLASS_$_NSFetchRequest
_OBJC_CLASS_$_NSFileHandle
_OBJC_CLASS_$_NSFileManager
_OBJC_CLASS_$_NSHTTPCookieStorage
_OBJC_CLASS_$_NSHTTPURLResponse
_OBJC_CLASS_$_NSIndexSet
_OBJC_CLASS_$_NSInputStream
_OBJC_CLASS_$_NSInvocation
_OBJC_CLASS_$_NSJSONSerialization
_OBJC_CLASS_$_NSKeyedArchiver
_OBJC_CLASS_$_NSKeyedUnarchiver
_OBJC_CLASS_$_NSLayoutConstraint
_OBJC_CLASS_$_NSLocale
_OBJC_CLASS_$_NSManagedObject
_OBJC_CLASS_$_NSManagedObjectContext
_OBJC_CLASS_$_NSManagedObjectModel
_OBJC_CLASS_$_NSMapTable
_OBJC_CLASS_$_NSMutableArray
_OBJC_CLASS_$_NSMutableData
_OBJC_CLASS_$_NSMutableDictionary
_OBJC_CLASS_$_NSMutableSet
_OBJC_CLASS_$_NSMutableString
_OBJC_CLASS_$_NSMutableURLRequest
_OBJC_CLASS_$_NSNotificationCenter
_OBJC_CLASS_$_NSNull
_OBJC_CLASS_$_NSNumber
_OBJC_CLASS_$_NSNumberFormatter
_OBJC_CLASS_$_NSObject
_OBJC_CLASS_$_NSOperationQueue
_OBJC_CLASS_$_NSOutputStream
_OBJC_CLASS_$_NSPersistentStoreCoordinator
_OBJC_CLASS_$_NSPointerArray
_OBJC_CLASS_$_NSPredicate
_OBJC_CLASS_$_NSProcessInfo
_OBJC_CLASS_$_NSPropertyListSerialization
_OBJC_CLASS_$_NSRegularExpression
_OBJC_CLASS_$_NSRunLoop
_OBJC_CLASS_$_NSScanner
_OBJC_CLASS_$_NSSet
_OBJC_CLASS_$_NSSortDescriptor
_OBJC_CLASS_$_NSString
_OBJC_CLASS_$_NSThread
_OBJC_CLASS_$_NSTimeZone
_OBJC_CLASS_$_NSTimer
_OBJC_CLASS_$_NSURL
_OBJC_CLASS_$_NSURLComponents
_OBJC_CLASS_$_NSURLConnection
_OBJC_CLASS_$_NSURLCredential
_OBJC_CLASS_$_NSURLProtocol
_OBJC_CLASS_$_NSURLRequest
_OBJC_CLASS_$_NSURLSession
_OBJC_CLASS_$_NSURLSessionConfiguration
_OBJC_CLASS_$_NSUUID
_OBJC_CLASS_$_NSUserDefaults
_OBJC_CLASS_$_NSValue
_OBJC_CLASS_$_SFSafariViewController
_OBJC_CLASS_$_SKMutablePayment
_OBJC_CLASS_$_SKPaymentQueue
_OBJC_CLASS_$_SKProductsRequest
_OBJC_CLASS_$_SKStoreProductViewController
_OBJC_CLASS_$_SSReadingList
_OBJC_CLASS_$_UIActivityIndicatorView
_OBJC_CLASS_$_UIAlertAction
_OBJC_CLASS_$_UIAlertController
_OBJC_CLASS_$_UIApplication
_OBJC_CLASS_$_UIBarButtonItem
_OBJC_CLASS_$_UIButton
_OBJC_CLASS_$_UIColor
_OBJC_CLASS_$_UIControl
_OBJC_CLASS_$_UIDevice
_OBJC_CLASS_$_UIFont
_OBJC_CLASS_$_UIImage
_OBJC_CLASS_$_UIImageView
_OBJC_CLASS_$_UILabel
_OBJC_CLASS_$_UILocalNotification
_OBJC_CLASS_$_UIMutableUserNotificationAction
_OBJC_CLASS_$_UIMutableUserNotificationCategory
_OBJC_CLASS_$_UINavigationController
_OBJC_CLASS_$_UIPasteboard
_OBJC_CLASS_$_UIScreen
_OBJC_CLASS_$_UISegmentedControl
_OBJC_CLASS_$_UITextField
_OBJC_CLASS_$_UITextView
_OBJC_CLASS_$_UIToolbar
_OBJC_CLASS_$_UIUserNotificationSettings
_OBJC_CLASS_$_UIView
_OBJC_CLASS_$_UIViewController
_OBJC_CLASS_$_UIWebView
_OBJC_CLASS_$_UIWindow
_OBJC_CLASS_$_WKWebView
_OBJC_EHTYPE_$_NSException
_OBJC_EHTYPE_id
_OBJC_METACLASS_$_NSEnumerator
_OBJC_METACLASS_$_NSHTTPCookieStorage
_OBJC_METACLASS_$_NSInputStream
_OBJC_METACLASS_$_NSManagedObject
_OBJC_METACLASS_$_NSObject
_OBJC_METACLASS_$_NSURLProtocol
_OBJC_METACLASS_$_UIActivityIndicatorView
_OBJC_METACLASS_$_UIControl
_OBJC_METACLASS_$_UIImageView
_OBJC_METACLASS_$_UILabel
_OBJC_METACLASS_$_UINavigationController
_OBJC_METACLASS_$_UIView
_OBJC_METACLASS_$_UIViewController
_OSAtomicAdd32Barrier
_OSAtomicCompareAndSwap32
_OSAtomicCompareAndSwap32Barrier
_OSAtomicCompareAndSwapPtrBarrier
_OSMemoryBarrier
_OSSpinLockLock
_OSSpinLockUnlock
_SCNetworkReachabilityCreateWithAddress
_SCNetworkReachabilityCreateWithName
_SCNetworkReachabilityGetFlags
_SCNetworkReachabilityScheduleWithRunLoop
_SCNetworkReachabilitySetCallback
_SCNetworkReachabilityUnscheduleFromRunLoop
_SKStoreProductParameterITunesItemIdentifier
_SecCertificateCopyData
_SecItemAdd
_SecItemCopyMatching
_SecItemDelete
_SecKeyGetBlockSize
_SecKeyRawSign
_SecKeyRawVerify
_SecRandomCopyBytes
_SecTrustEvaluate
_SecTrustGetCertificateAtIndex
_SecTrustGetCertificateCount
_UIAccessibilityTraitAllowsDirectInteraction
_UIAccessibilityTraitButton
_UIApplicationDidBecomeActiveNotification
_UIApplicationDidEnterBackgroundNotification
_UIApplicationDidFinishLaunchingNotification
_UIApplicationDidReceiveMemoryWarningNotification
_UIApplicationLaunchOptionsLocalNotificationKey
_UIApplicationLaunchOptionsRemoteNotificationKey
_UIApplicationMain
_UIApplicationOpenURLOptionsAnnotationKey
_UIApplicationOpenURLOptionsSourceApplicationKey
_UIApplicationSignificantTimeChangeNotification
_UIApplicationWillChangeStatusBarFrameNotification
_UIApplicationWillChangeStatusBarOrientationNotification
_UIApplicationWillEnterForegroundNotification
_UIApplicationWillResignActiveNotification
_UIApplicationWillTerminateNotification
_UIBackgroundTaskInvalid
_UIGraphicsBeginImageContext
_UIGraphicsBeginImageContextWithOptions
_UIGraphicsEndImageContext
_UIGraphicsGetCurrentContext
_UIGraphicsGetImageFromCurrentImageContext
_UIImagePNGRepresentation
_UIImageWriteToSavedPhotosAlbum
_UIKeyboardDidChangeFrameNotification
_UIKeyboardDidShowNotification
_UIKeyboardFrameEndUserInfoKey
_UIKeyboardWillHideNotification
_UILocalNotificationDefaultSoundName
_UIScreenDidConnectNotification
_UIScreenDidDisconnectNotification
_UITextFieldTextDidEndEditingNotification
_UITransitionContextFromViewControllerKey
_UITransitionContextToViewControllerKey
__Block_copy
__Block_object_assign
__Block_object_dispose
__DefaultRuneLocale
__FE_DFL_ENV
__NSConcreteGlobalBlock
__NSConcreteStackBlock
__NSGetExecutablePath
__Unwind_SjLj_Register
__Unwind_SjLj_Resume
__Unwind_SjLj_Unregister
__Z25getPxVehicleTireDataMTypePKN5physx17PxVehicleTireDataE
__Z25getPxVehicleWheelDataMMOIPKN5physx18PxVehicleWheelDataE
__Z25setPxVehicleTireDataMTypePN5physx17PxVehicleTireDataEj
__Z25setPxVehicleWheelDataMMOIPN5physx18PxVehicleWheelDataEf
__Z26getPxVehicleEngineDataMMOIPKN5physx19PxVehicleEngineDataE
__Z26getPxVehicleWheelDataMMassPKN5physx18PxVehicleWheelDataE
__Z26setPxVehicleEngineDataMMOIPN5physx19PxVehicleEngineDataEf
__Z26setPxVehicleWheelDataMMassPN5physx18PxVehicleWheelDataEf
__Z27getPxVehicleWheelDataMWidthPKN5physx18PxVehicleWheelDataE
__Z27setPxVehicleWheelDataMWidthPN5physx18PxVehicleWheelDataEf
__Z28getPxVehicleWheelDataMRadiusPKN5physx18PxVehicleWheelDataE
__Z28setPxVehicleWheelDataMRadiusPN5physx18PxVehicleWheelDataEf
__Z30getPxVehicleDriveMDriveDynDataPKN5physx14PxVehicleDriveE
__Z30getPxVehicleGearsDataMNbRatiosPKN5physx18PxVehicleGearsDataE
__Z30getPxVehicleTireDataMLatStiffXPKN5physx17PxVehicleTireDataE
__Z30getPxVehicleTireDataMLatStiffYPKN5physx17PxVehicleTireDataE
__Z30getPxVehicleWheelDataMMaxSteerPKN5physx18PxVehicleWheelDataE
__Z30getPxVehicleWheelDataMToeAnglePKN5physx18PxVehicleWheelDataE
__Z30setPxVehicleDriveMDriveDynDataPN5physx14PxVehicleDriveENS_21PxVehicleDriveDynDataE
__Z30setPxVehicleGearsDataMNbRatiosPN5physx18PxVehicleGearsDataEj
__Z30setPxVehicleTireDataMLatStiffXPN5physx17PxVehicleTireDataEf
__Z30setPxVehicleTireDataMLatStiffYPN5physx17PxVehicleTireDataEf
__Z30setPxVehicleWheelDataMMaxSteerPN5physx18PxVehicleWheelDataEf
__Z30setPxVehicleWheelDataMToeAnglePN5physx18PxVehicleWheelDataEf
__Z31getPxVehicleClutchDataMStrengthPKN5physx19PxVehicleClutchDataE
__Z31getPxVehicleEngineDataMMaxOmegaPKN5physx19PxVehicleEngineDataE
__Z31setPxVehicleClutchDataMStrengthPN5physx19PxVehicleClutchDataEf
__Z31setPxVehicleEngineDataMMaxOmegaPN5physx19PxVehicleEngineDataEf
__Z32getPxVehicleDrive4WMDriveSimDataPKN5physx16PxVehicleDrive4WE
__Z32getPxVehicleDriveNWMDriveSimDataPKN5physx16PxVehicleDriveNWE
__Z32getPxVehicleGearsDataMFinalRatioPKN5physx18PxVehicleGearsDataE
__Z32getPxVehicleGearsDataMSwitchTimePKN5physx18PxVehicleGearsDataE
__Z32getPxVehicleWheelsMWheelsDynDataPKN5physx15PxVehicleWheelsE
__Z32getPxVehicleWheelsMWheelsSimDataPKN5physx15PxVehicleWheelsE
__Z32setPxVehicleDrive4WMDriveSimDataPN5physx16PxVehicleDrive4WENS_23PxVehicleDriveSimData4WE
__Z32setPxVehicleDriveNWMDriveSimDataPN5physx16PxVehicleDriveNWENS_23PxVehicleDriveSimDataNWE
__Z32setPxVehicleGearsDataMFinalRatioPN5physx18PxVehicleGearsDataEf
__Z32setPxVehicleGearsDataMSwitchTimePN5physx18PxVehicleGearsDataEf
__Z32setPxVehicleWheelsMWheelsDynDataPN5physx15PxVehicleWheelsENS_22PxVehicleWheelsDynDataE
__Z32setPxVehicleWheelsMWheelsSimDataPN5physx15PxVehicleWheelsENS_22PxVehicleWheelsSimDataE
__Z33getPxVehicleEngineDataMPeakTorquePKN5physx19PxVehicleEngineDataE
__Z33getPxVehicleWheelDataMDampingRatePKN5physx18PxVehicleWheelDataE
__Z33setPxVehicleEngineDataMPeakTorquePN5physx19PxVehicleEngineDataEf
__Z33setPxVehicleWheelDataMDampingRatePN5physx18PxVehicleWheelDataEf
__Z34getPxVehicleDriveTankMDriveSimDataPKN5physx18PxVehicleDriveTankE
__Z34setPxVehicleDriveTankMDriveSimDataPN5physx18PxVehicleDriveTankENS_21PxVehicleDriveSimDataE
__Z35getPxVehicleClutchDataMAccuracyModePKN5physx19PxVehicleClutchDataE
__Z35getPxVehicleDifferential4WDataMTypePKN5physx27PxVehicleDifferential4WDataE
__Z35getPxVehicleDriveDynDataMTargetGearPKN5physx21PxVehicleDriveDynDataE
__Z35getPxVehicleSuspensionDataMMaxDroopPKN5physx23PxVehicleSuspensionDataE
__Z35setPxVehicleClutchDataMAccuracyModePN5physx19PxVehicleClutchDataENS_27PxVehicleClutchAccuracyMode4EnumE
__Z35setPxVehicleDifferential4WDataMTypePN5physx27PxVehicleDifferential4WDataENS0_4EnumE
__Z35setPxVehicleDriveDynDataMTargetGearPN5physx21PxVehicleDriveDynDataEj
__Z35setPxVehicleSuspensionDataMMaxDroopPN5physx23PxVehicleSuspensionDataEf
__Z36getPxVehicleDriveDynDataMCurrentGearPKN5physx21PxVehicleDriveDynDataE
__Z36getPxVehicleDriveDynDataMEnginespeedPKN5physx21PxVehicleDriveDynDataE
__Z36getPxVehicleWheelDataMMaxBrakeTorquePKN5physx18PxVehicleWheelDataE
__Z36setPxVehicleDriveDynDataMCurrentGearPN5physx21PxVehicleDriveDynDataEj
__Z36setPxVehicleDriveDynDataMEnginespeedPN5physx21PxVehicleDriveDynDataEf
__Z36setPxVehicleWheelDataMMaxBrakeTorquePN5physx18PxVehicleWheelDataEf
__Z37getPxVehicleDriveDynDataMUseAutoGearsPKN5physx21PxVehicleDriveDynDataE
__Z37getPxVehicleSuspensionDataMSprungMassPKN5physx23PxVehicleSuspensionDataE
__Z37setPxVehicleDriveDynDataMUseAutoGearsPN5physx21PxVehicleDriveDynDataEb
__Z37setPxVehicleSuspensionDataMSprungMassPN5physx23PxVehicleSuspensionDataEf
__Z38getPxVehicleDriveDynDataMGearUpPressedPKN5physx21PxVehicleDriveDynDataE
__Z38setPxVehicleDriveDynDataMGearUpPressedPN5physx21PxVehicleDriveDynDataEb
__Z39getPxVehicleDifferential4WDataMRearBiasPKN5physx27PxVehicleDifferential4WDataE
__Z39getPxVehicleDriveDynDataMGearSwitchTimePKN5physx21PxVehicleDriveDynDataE
__Z39getPxVehicleSuspensionDataMCamberAtRestPKN5physx23PxVehicleSuspensionDataE
__Z39setPxVehicleDifferential4WDataMRearBiasPN5physx27PxVehicleDifferential4WDataEf
__Z39setPxVehicleDriveDynDataMGearSwitchTimePN5physx21PxVehicleDriveDynDataEf
__Z39setPxVehicleSuspensionDataMCamberAtRestPN5physx23PxVehicleSuspensionDataEf
__Z40getPxVehicleDifferential4WDataMFrontBiasPKN5physx27PxVehicleDifferential4WDataE
__Z40getPxVehicleDriveDynDataMGearDownPressedPKN5physx21PxVehicleDriveDynDataE
__Z40getPxVehicleWheelDataMMaxHandBrakeTorquePKN5physx18PxVehicleWheelDataE
__Z40setPxVehicleDifferential4WDataMFrontBiasPN5physx27PxVehicleDifferential4WDataEf
__Z40setPxVehicleDriveDynDataMGearDownPressedPN5physx21PxVehicleDriveDynDataEb
__Z40setPxVehicleWheelDataMMaxHandBrakeTorquePN5physx18PxVehicleWheelDataEf
__Z41getPxVehicleClutchDataMEstimateIterationsPKN5physx19PxVehicleClutchDataE
__Z41getPxVehicleDifferential4WDataMCentreBiasPKN5physx27PxVehicleDifferential4WDataE
__Z41getPxVehicleSuspensionDataMMaxCompressionPKN5physx23PxVehicleSuspensionDataE
__Z41getPxVehicleSuspensionDataMSpringStrengthPKN5physx23PxVehicleSuspensionDataE
__Z41setPxVehicleClutchDataMEstimateIterationsPN5physx19PxVehicleClutchDataEj
__Z41setPxVehicleDifferential4WDataMCentreBiasPN5physx27PxVehicleDifferential4WDataEf
__Z41setPxVehicleSuspensionDataMMaxCompressionPN5physx23PxVehicleSuspensionDataEf
__Z41setPxVehicleSuspensionDataMSpringStrengthPN5physx23PxVehicleSuspensionDataEf
__Z42getPxVehicleAckermannGeometryDataMAccuracyPKN5physx30PxVehicleAckermannGeometryDataE
__Z42getPxVehicleDriveDynDataMAutoBoxSwitchTimePKN5physx21PxVehicleDriveDynDataE
__Z42setPxVehicleAckermannGeometryDataMAccuracyPN5physx30PxVehicleAckermannGeometryDataEf
__Z42setPxVehicleDriveDynDataMAutoBoxSwitchTimePN5physx21PxVehicleDriveDynDataEf
__Z43getPxVehicleAckermannGeometryDataMRearWidthPKN5physx30PxVehicleAckermannGeometryDataE
__Z43getPxVehicleSuspensionDataMCamberAtMaxDroopPKN5physx23PxVehicleSuspensionDataE
__Z43getPxVehicleSuspensionDataMSpringDamperRatePKN5physx23PxVehicleSuspensionDataE
__Z43setPxVehicleAckermannGeometryDataMRearWidthPN5physx30PxVehicleAckermannGeometryDataEf
__Z43setPxVehicleSuspensionDataMCamberAtMaxDroopPN5physx23PxVehicleSuspensionDataEf
__Z43setPxVehicleSuspensionDataMSpringDamperRatePN5physx23PxVehicleSuspensionDataEf
__Z44getPxVehicleAckermannGeometryDataMFrontWidthPKN5physx30PxVehicleAckermannGeometryDataE
__Z44setPxVehicleAckermannGeometryDataMFrontWidthPN5physx30PxVehicleAckermannGeometryDataEf
__Z45getPxVehicleDifferential4WDataMFrontRearSplitPKN5physx27PxVehicleDifferential4WDataE
__Z45setPxVehicleDifferential4WDataMFrontRearSplitPN5physx27PxVehicleDifferential4WDataEf
__Z46getPxVehicleEngineDataMDampingRateFullThrottlePKN5physx19PxVehicleEngineDataE
__Z46setPxVehicleEngineDataMDampingRateFullThrottlePN5physx19PxVehicleEngineDataEf
__Z48getPxVehicleAckermannGeometryDataMAxleSeparationPKN5physx30PxVehicleAckermannGeometryDataE
__Z48getPxVehicleTireLoadFilterDataMMaxNormalisedLoadPKN5physx27PxVehicleTireLoadFilterDataE
__Z48getPxVehicleTireLoadFilterDataMMinNormalisedLoadPKN5physx27PxVehicleTireLoadFilterDataE
__Z48setPxVehicleAckermannGeometryDataMAxleSeparationPN5physx30PxVehicleAckermannGeometryDataEf
__Z48setPxVehicleTireLoadFilterDataMMaxNormalisedLoadPN5physx27PxVehicleTireLoadFilterDataEf
__Z48setPxVehicleTireLoadFilterDataMMinNormalisedLoadPN5physx27PxVehicleTireLoadFilterDataEf
__Z49getPxVehicleDifferential4WDataMRearLeftRightSplitPKN5physx27PxVehicleDifferential4WDataE
__Z49getPxVehicleSuspensionDataMCamberAtMaxCompressionPKN5physx23PxVehicleSuspensionDataE
__Z49setPxVehicleDifferential4WDataMRearLeftRightSplitPN5physx27PxVehicleDifferential4WDataEf
__Z49setPxVehicleSuspensionDataMCamberAtMaxCompressionPN5physx23PxVehicleSuspensionDataEf
__Z50getPxVehicleDifferential4WDataMFrontLeftRightSplitPKN5physx27PxVehicleDifferential4WDataE
__Z50getPxVehicleTireDataMCamberStiffnessPerUnitGravityPKN5physx17PxVehicleTireDataE
__Z50setPxVehicleDifferential4WDataMFrontLeftRightSplitPN5physx27PxVehicleDifferential4WDataEf
__Z50setPxVehicleTireDataMCamberStiffnessPerUnitGravityPN5physx17PxVehicleTireDataEf
__Z56getPxVehicleTireDataMLongitudinalStiffnessPerUnitGravityPKN5physx17PxVehicleTireDataE
__Z56getPxVehicleTireLoadFilterDataMMaxFilteredNormalisedLoadPKN5physx27PxVehicleTireLoadFilterDataE
__Z56getPxVehicleTireLoadFilterDataMMinFilteredNormalisedLoadPKN5physx27PxVehicleTireLoadFilterDataE
__Z56setPxVehicleTireDataMLongitudinalStiffnessPerUnitGravityPN5physx17PxVehicleTireDataEf
__Z56setPxVehicleTireLoadFilterDataMMaxFilteredNormalisedLoadPN5physx27PxVehicleTireLoadFilterDataEf
__Z56setPxVehicleTireLoadFilterDataMMinFilteredNormalisedLoadPN5physx27PxVehicleTireLoadFilterDataEf
__Z59getPxVehicleEngineDataMDampingRateZeroThrottleClutchEngagedPKN5physx19PxVehicleEngineDataE
__Z59setPxVehicleEngineDataMDampingRateZeroThrottleClutchEngagedPN5physx19PxVehicleEngineDataEf
__Z62getPxVehicleEngineDataMDampingRateZeroThrottleClutchDisengagedPKN5physx19PxVehicleEngineDataE
__Z62setPxVehicleEngineDataMDampingRateZeroThrottleClutchDisengagedPN5physx19PxVehicleEngineDataEf
__ZGVN5physx5cloth11SwCollisionI6Simd4fE14sSkeletonWidthE
__ZN5physx18GetTorqueCurvePairEPKNS_19PxVehicleEngineDataEj
__ZN5physx18SetTorqueCurvePairEPNS_19PxVehicleEngineDataEjf
__ZN5physx20GetNbTorqueCurvePairEPKNS_19PxVehicleEngineDataE
__ZN5physx23GetMFrictionVsSlipGraphEPKNS_17PxVehicleTireDataEjj
__ZN5physx23PxVehicleRepXSerializerINS_16PxVehicleDrive4WEE12fileToObjectERNS_9XmlReaderERNS_18XmlMemoryAllocatorERNS_23PxRepXInstantiationArgsEPNS_12PxCollectionE
__ZN5physx23PxVehicleRepXSerializerINS_16PxVehicleDrive4WEE14allocateObjectERNS_23PxRepXInstantiationArgsE
__ZN5physx23PxVehicleRepXSerializerINS_16PxVehicleDrive4WEE16objectToFileImplEPKS1_PNS_12PxCollectionERNS_9XmlWriterERNS_12MemoryBufferERNS_23PxRepXInstantiationArgsE
__ZN5physx23PxVehicleRepXSerializerINS_16PxVehicleDriveNWEE12fileToObjectERNS_9XmlReaderERNS_18XmlMemoryAllocatorERNS_23PxRepXInstantiationArgsEPNS_12PxCollectionE
__ZN5physx23PxVehicleRepXSerializerINS_16PxVehicleDriveNWEE14allocateObjectERNS_23PxRepXInstantiationArgsE
__ZN5physx23PxVehicleRepXSerializerINS_16PxVehicleDriveNWEE16objectToFileImplEPKS1_PNS_12PxCollectionERNS_9XmlWriterERNS_12MemoryBufferERNS_23PxRepXInstantiationArgsE
__ZN5physx23PxVehicleRepXSerializerINS_16PxVehicleNoDriveEE12fileToObjectERNS_9XmlReaderERNS_18XmlMemoryAllocatorERNS_23PxRepXInstantiationArgsEPNS_12PxCollectionE
__ZN5physx23PxVehicleRepXSerializerINS_16PxVehicleNoDriveEE14allocateObjectERNS_23PxRepXInstantiationArgsE
__ZN5physx23PxVehicleRepXSerializerINS_16PxVehicleNoDriveEE16objectToFileImplEPKS1_PNS_12PxCollectionERNS_9XmlWriterERNS_12MemoryBufferERNS_23PxRepXInstantiationArgsE
__ZN5physx23PxVehicleRepXSerializerINS_18PxVehicleDriveTankEE12fileToObjectERNS_9XmlReaderERNS_18XmlMemoryAllocatorERNS_23PxRepXInstantiationArgsEPNS_12PxCollectionE
__ZN5physx23PxVehicleRepXSerializerINS_18PxVehicleDriveTankEE14allocateObjectERNS_23PxRepXInstantiationArgsE
__ZN5physx23PxVehicleRepXSerializerINS_18PxVehicleDriveTankEE16objectToFileImplEPKS1_PNS_12PxCollectionERNS_9XmlWriterERNS_12MemoryBufferERNS_23PxRepXInstantiationArgsE
__ZN5physx23SetMFrictionVsSlipGraphEPNS_17PxVehicleTireDataEjjf
__ZN5physx25PxVehicleConstraintShader19visualiseConstraintERNS_22PxConstraintVisualizerEPKvRKNS_11PxTransformES7_j
__ZN5physx25PxVehicleConstraintShader36vehicleSuspLimitConstraintSolverPrepEPNS_14Px1DConstraintERNS_6PxVec3EjRNS_24PxConstraintInvMassScaleEPKvRKNS_11PxTransformESB_
__ZN5physx2Gu15MeshRayCollider7collideILi0ELi1EEEvRKNS_6PxVec3ES5_fbRKNS0_17RTreeMidphaseDataERNS0_15MeshHitCallbackINS_12PxRaycastHitEEEPS4_
__ZN5physx2Gu15MeshRayCollider7collideILi1ELi0EEEvRKNS_6PxVec3ES5_fbRKNS0_17RTreeMidphaseDataERNS0_15MeshHitCallbackINS_12PxRaycastHitEEEPS4_
__ZN5physx2Gu15MeshRayCollider7collideILi1ELi1EEEvRKNS_6PxVec3ES5_fbRKNS0_17RTreeMidphaseDataERNS0_15MeshHitCallbackINS_12PxRaycastHitEEEPS4_
__ZN5physx5cloth11SwCollisionI6Simd4fE14sSkeletonWidthE
__ZN5physx5cloth11SwCollisionI6Simd4fE15collideConvexesEPKS2_PS2_RNS3_18ImpulseAccumulatorE
__ZN5physx5cloth11SwCollisionI6Simd4fE15collideConvexesERKNS0_14IterationStateIS2_EE
__ZN5physx5cloth11SwCollisionI6Simd4fE16collideParticlesEv
__ZN5physx5cloth11SwCollisionI6Simd4fE16collideTrianglesEPKNS0_12TriangleDataEPS2_RNS3_18ImpulseAccumulatorE
__ZN5physx5cloth11SwCollisionI6Simd4fE16collideTrianglesERKNS0_14IterationStateIS2_EE
__ZN5physx5cloth11SwCollisionI6Simd4fE17buildAccelerationEv
__ZN5physx5cloth11SwCollisionI6Simd4fE17mergeAccelerationEPj
__ZN5physx5cloth11SwCollisionI6Simd4fE23buildSphereAccelerationEPKNS0_10SphereDataE
__ZN5physx5cloth11SwCollisionI6Simd4fE23collideVirtualParticlesEv
__ZN5physx5cloth11SwCollisionI6Simd4fE23estimateTemporaryMemoryERKNS0_7SwClothE
__ZN5physx5cloth11SwCollisionI6Simd4fE24estimatePersistentMemoryERKNS0_7SwClothE
__ZN5physx5cloth11SwCollisionI6Simd4fE26collideContinuousParticlesEv
__ZN5physx5cloth11SwCollisionI6Simd4fEC1ERNS0_11SwClothDataER14StackAllocatorILm16EEPNS_13PxProfileZoneE
__ZN5physx5cloth11SwCollisionI6Simd4fEC2ERNS0_11SwClothDataER14StackAllocatorILm16EEPNS_13PxProfileZoneE
__ZN5physx5cloth11SwCollisionI6Simd4fED1Ev
__ZN5physx5cloth11SwCollisionI6Simd4fED2Ev
__ZN5physx5cloth11SwCollisionI6Simd4fEclERKNS0_14IterationStateIS2_EE
__ZN5physx5cloth14SwSolverKernelI6Simd4fE11solveFabricEv
__ZN5physx5cloth14SwSolverKernelI6Simd4fE12iterateClothEv
__ZN5physx5cloth14SwSolverKernelI6Simd4fE15constrainMotionEv
__ZN5physx5cloth14SwSolverKernelI6Simd4fE18integrateParticlesEv
__ZN5physx5cloth14SwSolverKernelI6Simd4fE19constrainSeparationEv
__ZN5physx5cloth14SwSolverKernelI6Simd4fE23estimateTemporaryMemoryERKNS0_7SwClothE
__ZN5physx5cloth14SwSolverKernelI6Simd4fEC1ERKNS0_7SwClothERNS0_11SwClothDataER14StackAllocatorILm16EERNS0_21IterationStateFactoryEPNS_13PxProfileZoneE
__ZN5physx5cloth14SwSolverKernelI6Simd4fEC2ERKNS0_7SwClothERNS0_11SwClothDataER14StackAllocatorILm16EERNS0_21IterationStateFactoryEPNS_13PxProfileZoneE
__ZN5physx5cloth14SwSolverKernelI6Simd4fEclEv
__ZN5physx5cloth15SwSelfCollisionI6Simd4fE23estimateTemporaryMemoryERKNS0_7SwClothE
__ZN5physx5cloth15SwSelfCollisionI6Simd4fEC1ERNS0_11SwClothDataER14StackAllocatorILm16EE
__ZN5physx5cloth15SwSelfCollisionI6Simd4fED1Ev
__ZN5physx5cloth15SwSelfCollisionI6Simd4fEclEv
__ZN5physx5cloth16SwInterCollisionI6Simd4fE16collideParticlesEPKjjS5_jj
__ZN5physx5cloth16SwInterCollisionI6Simd4fE23estimateTemporaryMemoryEPNS0_20SwInterCollisionDataEj
__ZN5physx5cloth16SwInterCollisionI6Simd4fEC1EPKNS0_20SwInterCollisionDataEjffjPFbPvS7_ER14StackAllocatorILm16EEPNS_13PxProfileZoneE
__ZN5physx5cloth16SwInterCollisionI6Simd4fED1Ev
__ZN5physx5cloth16SwInterCollisionI6Simd4fEclEv
__ZNK5physx14NpSceneQueries10multiQueryINS_10PxSweepHitEEEbRKNS_15MultiQueryInputERNS_13PxHitCallbackIT_EENS_7PxFlagsINS_9PxHitFlag4EnumEtEEPKNS_12PxQueryCacheERKNS_17PxQueryFilterDataEPNS_21PxQueryFilterCallbackEPNS_20BatchQueryFilterDataE
__ZNK5physx14NpSceneQueries10multiQueryINS_12PxOverlapHitEEEbRKNS_15MultiQueryInputERNS_13PxHitCallbackIT_EENS_7PxFlagsINS_9PxHitFlag4EnumEtEEPKNS_12PxQueryCacheERKNS_17PxQueryFilterDataEPNS_21PxQueryFilterCallbackEPNS_20BatchQueryFilterDataE
__ZNK5physx14NpSceneQueries10multiQueryINS_12PxRaycastHitEEEbRKNS_15MultiQueryInputERNS_13PxHitCallbackIT_EENS_7PxFlagsINS_9PxHitFlag4EnumEtEEPKNS_12PxQueryCacheERKNS_17PxQueryFilterDataEPNS_21PxQueryFilterCallbackEPNS_20BatchQueryFilterDataE
__ZNK5physx2Gu5RTree11traverseRayILi0EEEvRKNS_6PxVec3ES5_jPjPNS1_15CallbackRaycastEPS4_f
__ZNK5physx2Gu5RTree11traverseRayILi1EEEvRKNS_6PxVec3ES5_jPjPNS1_15CallbackRaycastEPS4_f
__ZNKSt3__112basic_stringIcNS_11char_traitsIcEENS_9allocatorIcEEE2atEm
__ZNKSt3__112basic_stringIcNS_11char_traitsIcEENS_9allocatorIcEEE4findEcm
__ZNKSt3__112basic_stringIcNS_11char_traitsIcEENS_9allocatorIcEEE5rfindEPKcmm
__ZNKSt3__112basic_stringIcNS_11char_traitsIcEENS_9allocatorIcEEE5rfindEcm
__ZNKSt3__112basic_stringIcNS_11char_traitsIcEENS_9allocatorIcEEE7compareEPKc
__ZNKSt3__112basic_stringIcNS_11char_traitsIcEENS_9allocatorIcEEE7compareEmmPKc
__ZNKSt3__112basic_stringIcNS_11char_traitsIcEENS_9allocatorIcEEE7compareEmmPKcm
__ZNKSt3__119__shared_weak_count13__get_deleterERKSt9type_info
__ZNKSt3__120__vector_base_commonILb1EE20__throw_length_errorEv
__ZNKSt3__120__vector_base_commonILb1EE20__throw_out_of_rangeEv
__ZNKSt3__121__basic_string_commonILb1EE20__throw_length_errorEv
__ZNKSt3__121__basic_string_commonILb1EE20__throw_out_of_rangeEv
__ZNKSt3__16locale9use_facetERNS0_2idE
__ZNKSt3__18ios_base6getlocEv
__ZNKSt9exception4whatEv
__ZNSt13exception_ptrD1Ev
__ZNSt3__111__call_onceERVmPvPFvS2_E
__ZNSt3__111this_thread9sleep_forERKNS_6chrono8durationIxNS_5ratioILx1ELx1000000000EEEEE
__ZNSt3__112__next_primeEm
__ZNSt3__112basic_stringIcNS_11char_traitsIcEENS_9allocatorIcEEE2atEm
__ZNSt3__112basic_stringIcNS_11char_traitsIcEENS_9allocatorIcEEE5eraseEmm
__ZNSt3__112basic_stringIcNS_11char_traitsIcEENS_9allocatorIcEEE6__initEPKcm
__ZNSt3__112basic_stringIcNS_11char_traitsIcEENS_9allocatorIcEEE6__initEPKcmm
__ZNSt3__112basic_stringIcNS_11char_traitsIcEENS_9allocatorIcEEE6__initEmc
__ZNSt3__112basic_stringIcNS_11char_traitsIcEENS_9allocatorIcEEE6appendEPKc
__ZNSt3__112basic_stringIcNS_11char_traitsIcEENS_9allocatorIcEEE6appendEPKcm
__ZNSt3__112basic_stringIcNS_11char_traitsIcEENS_9allocatorIcEEE6appendERKS5_mm
__ZNSt3__112basic_stringIcNS_11char_traitsIcEENS_9allocatorIcEEE6appendEmc
__ZNSt3__112basic_stringIcNS_11char_traitsIcEENS_9allocatorIcEEE6assignEPKc
__ZNSt3__112basic_stringIcNS_11char_traitsIcEENS_9allocatorIcEEE6assignEPKcm
__ZNSt3__112basic_stringIcNS_11char_traitsIcEENS_9allocatorIcEEE6insertEmPKc
__ZNSt3__112basic_stringIcNS_11char_traitsIcEENS_9allocatorIcEEE6resizeEmc
__ZNSt3__112basic_stringIcNS_11char_traitsIcEENS_9allocatorIcEEE7replaceEmmPKc
__ZNSt3__112basic_stringIcNS_11char_traitsIcEENS_9allocatorIcEEE7reserveEm
__ZNSt3__112basic_stringIcNS_11char_traitsIcEENS_9allocatorIcEEE9__grow_byEmmmmmm
__ZNSt3__112basic_stringIcNS_11char_traitsIcEENS_9allocatorIcEEE9push_backEc
__ZNSt3__112basic_stringIcNS_11char_traitsIcEENS_9allocatorIcEEEC1ERKS5_
__ZNSt3__112basic_stringIcNS_11char_traitsIcEENS_9allocatorIcEEEC1ERKS5_mmRKS4_
__ZNSt3__112basic_stringIcNS_11char_traitsIcEENS_9allocatorIcEEED1Ev
__ZNSt3__112basic_stringIcNS_11char_traitsIcEENS_9allocatorIcEEEaSERKS5_
__ZNSt3__112future_errorC1ENS_10error_codeE
__ZNSt3__112future_errorD1Ev
__ZNSt3__113basic_istreamIcNS_11char_traitsIcEEED0Ev
__ZNSt3__113basic_istreamIcNS_11char_traitsIcEEED1Ev
__ZNSt3__113basic_ostreamIcNS_11char_traitsIcEEE5writeEPKci
__ZNSt3__113basic_ostreamIcNS_11char_traitsIcEEE6sentryC1ERS3_
__ZNSt3__113basic_ostreamIcNS_11char_traitsIcEEE6sentryD1Ev
__ZNSt3__113basic_ostreamIcNS_11char_traitsIcEEED0Ev
__ZNSt3__113basic_ostreamIcNS_11char_traitsIcEEED1Ev
__ZNSt3__113basic_ostreamIcNS_11char_traitsIcEEED2Ev
__ZNSt3__113basic_ostreamIcNS_11char_traitsIcEEElsEd
__ZNSt3__113basic_ostreamIcNS_11char_traitsIcEEElsEi
__ZNSt3__113basic_ostreamIcNS_11char_traitsIcEEElsEj
__ZNSt3__113basic_ostreamIcNS_11char_traitsIcEEElsEt
__ZNSt3__113random_deviceC1ERKNS_12basic_stringIcNS_11char_traitsIcEENS_9allocatorIcEEEE
__ZNSt3__113random_deviceD1Ev
__ZNSt3__113random_deviceclEv
__ZNSt3__114basic_iostreamIcNS_11char_traitsIcEEED0Ev
__ZNSt3__114basic_iostreamIcNS_11char_traitsIcEEED1Ev
__ZNSt3__114basic_iostreamIcNS_11char_traitsIcEEED2Ev
__ZNSt3__115__thread_structC1Ev
__ZNSt3__115__thread_structD1Ev
__ZNSt3__115basic_streambufIcNS_11char_traitsIcEEE4syncEv
__ZNSt3__115basic_streambufIcNS_11char_traitsIcEEE5imbueERKNS_6localeE
__ZNSt3__115basic_streambufIcNS_11char_traitsIcEEE5uflowEv
__ZNSt3__115basic_streambufIcNS_11char_traitsIcEEE6setbufEPci
__ZNSt3__115basic_streambufIcNS_11char_traitsIcEEE6xsgetnEPci
__ZNSt3__115basic_streambufIcNS_11char_traitsIcEEE6xsputnEPKci
__ZNSt3__115basic_streambufIcNS_11char_traitsIcEEE9showmanycEv
__ZNSt3__115basic_streambufIcNS_11char_traitsIcEEEC2Ev
__ZNSt3__115basic_streambufIcNS_11char_traitsIcEEED2Ev
__ZNSt3__115future_categoryEv
__ZNSt3__115recursive_mutex4lockEv
__ZNSt3__115recursive_mutex6unlockEv
__ZNSt3__115recursive_mutexC1Ev
__ZNSt3__115recursive_mutexD1Ev
__ZNSt3__118condition_variable10notify_allEv
__ZNSt3__118condition_variable10notify_oneEv
__ZNSt3__118condition_variable15__do_timed_waitERNS_11unique_lockINS_5mutexEEENS_6chrono10time_pointINS5_12system_clockENS5_8durationIxNS_5ratioILx1ELx1000000000EEEEEEE
__ZNSt3__118condition_variable4waitERNS_11unique_lockINS_5mutexEEE
__ZNSt3__118condition_variableD1Ev
__ZNSt3__119__shared_weak_count10__add_weakEv
__ZNSt3__119__shared_weak_count12__add_sharedEv
__ZNSt3__119__shared_weak_count14__release_weakEv
__ZNSt3__119__shared_weak_count16__release_sharedEv
__ZNSt3__119__shared_weak_count4lockEv
__ZNSt3__119__shared_weak_countD2Ev
__ZNSt3__119__thread_local_dataEv
__ZNSt3__120__throw_system_errorEiPKc
__ZNSt3__14cerrE
__ZNSt3__15ctypeIcE2idE
__ZNSt3__15mutex4lockEv
__ZNSt3__15mutex6unlockEv
__ZNSt3__15mutex8try_lockEv
__ZNSt3__15mutexD1Ev
__ZNSt3__16__sortIRNS_6__lessIiiEEPiEEvT0_S5_T_
__ZNSt3__16__sortIRNS_6__lessIjjEEPjEEvT0_S5_T_
__ZNSt3__16chrono12steady_clock3nowEv
__ZNSt3__16chrono12system_clock3nowEv
__ZNSt3__16futureIvED1Ev
__ZNSt3__16localeD1Ev
__ZNSt3__16thread4joinEv
__ZNSt3__16thread6detachEv
__ZNSt3__16threadD1Ev
__ZNSt3__17promiseIvE10get_futureEv
__ZNSt3__17promiseIvE13set_exceptionESt13exception_ptr
__ZNSt3__17promiseIvE9set_valueEv
__ZNSt3__17promiseIvEC1Ev
__ZNSt3__17promiseIvED1Ev
__ZNSt3__18ios_base33__set_badbit_and_consider_rethrowEv
__ZNSt3__18ios_base4initEPv
__ZNSt3__18ios_base5clearEj
__ZNSt3__19basic_iosIcNS_11char_traitsIcEEED2Ev
__ZNSt3__19to_stringEi
__ZNSt9exceptionD2Ev
__ZSt17current_exceptionv
__ZSt7nothrow
__ZSt9terminatev
__ZTI15PxsCMUpdateTask
__ZTI16ControllerFilter
__ZTI16PxOverflowBufferIN5physx10PxSweepHitEE
__ZTI16PxOverflowBufferIN5physx12PxOverlapHitEE
__ZTI16PxOverflowBufferIN5physx12PxRaycastHitEE
__ZTI16RTreeCookerRemap
__ZTI16RayRTreeCallbackILi0ELb0EE
__ZTI16RayRTreeCallbackILi0ELb1EE
__ZTI16RayRTreeCallbackILi1ELb0EE
__ZTI16RayRTreeCallbackILi1ELb1EE
__ZTI18MultiQueryCallbackIN5physx10PxSweepHitEE
__ZTI18MultiQueryCallbackIN5physx12PxOverlapHitEE
__ZTI18MultiQueryCallbackIN5physx12PxRaycastHitEE
__ZTI20SweepCapsuleCallback
__ZTI21BoxTraceSegmentReport
__ZTI21PxsCreateFinalizeTask
__ZTI21PxsParallelSolverTask
__ZTI23PxsCMDiscreteUpdateTask
__ZTI23RayMeshColliderCallback
__ZTI23SweepBoxMeshHitCallback
__ZTI24ConvexVsHeightfieldSweep
__ZTI24MidPhaseQueryLocalReport
__ZTI25CapsuleTraceSegmentReport
__ZTI25ConvexVsMeshSweepCallback
__ZTI25MeshMTDGenerationCallback
__ZTI26ContactCapsuleMeshCallback
__ZTI26IntersectAnyVsMeshCallbackILi0ELb0EE
__ZTI26IntersectAnyVsMeshCallbackILi0ELb1EE
__ZTI26IntersectAnyVsMeshCallbackILi1ELb0EE
__ZTI26IntersectAnyVsMeshCallbackILi1ELb1EE
__ZTI26IntersectAnyVsMeshCallbackILi2ELb0EE
__ZTI26IntersectAnyVsMeshCallbackILi2ELb1EE
__ZTI26PxcContactCellMeshCallback
__ZTI27ConvexVsMeshOverlapCallback
__ZTI37ConvexVsMeshContactGenerationCallback
__ZTI43CapsuleHeightfieldContactGenerationCallback
__ZTI44ConvexVsHeightfieldContactGenerationCallback
__ZTIN5physx10PxBaseTaskE
__ZTIN5physx10PxMaterialE
__ZTIN5physx11EdgeManagerE
__ZTIN5physx11ElemManagerINS_16ArticulationRootEjEE
__ZTIN5physx11ElemManagerINS_4EdgeEjEE
__ZTIN5physx11ElemManagerINS_4NodeEjEE
__ZTIN5physx11ElemManagerINS_6IslandEjEE
__ZTIN5physx11NodeManagerE
__ZTIN5physx11PxAggregateE
__ZTIN5physx11PxHitBufferINS_10PxSweepHitEEE
__ZTIN5physx11PxHitBufferINS_12PxOverlapHitEEE
__ZTIN5physx11PxHitBufferINS_12PxRaycastHitEEE
__ZTIN5physx11PxRigidBodyE
__ZTIN5physx11RTreeCooker13RemapCallbackE
__ZTIN5physx12PxBatchQueryE
__ZTIN5physx12PxConstraintE
__ZTIN5physx12PxControllerE
__ZTIN5physx12PxConvexMeshE
__ZTIN5physx12PxFoundationE
__ZTIN5physx12PxLockedDataE
__ZTIN5physx12PxRigidActorE
__ZTIN5physx12PxSerializerE
__ZTIN5physx13IslandManagerE
__ZTIN5physx13PxClothFabricE
__ZTIN5physx13PxHeightFieldE
__ZTIN5physx13PxHitCallbackINS_10PxSweepHitEEE
__ZTIN5physx13PxHitCallbackINS_12PxOverlapHitEEE
__ZTIN5physx13PxHitCallbackINS_12PxRaycastHitEEE
__ZTIN5physx13PxInputStreamE
__ZTIN5physx13PxProfileZoneE
__ZTIN5physx13PxRigidStaticE
__ZTIN5physx13PxTaskManagerE
__ZTIN5physx13PxVolumeCacheE
__ZTIN5physx13PxsSolverCoreE
__ZTIN5physx13PxvBroadPhaseE
__ZTIN5physx14PxArticulationE
__ZTIN5physx14PxLightCpuTaskE
__ZTIN5physx14PxOutputStreamE
__ZTIN5physx14PxParticleBaseE
__ZTIN5physx14PxRenderBufferE
__ZTIN5physx14PxRigidDynamicE
__ZTIN5physx14PxTriangleMeshE
__ZTIN5physx14PxVehicleDriveE
__ZTIN5physx15NpActorTemplateINS_13PxRigidStaticEEE
__ZTIN5physx15NpActorTemplateINS_14PxRigidDynamicEEE
__ZTIN5physx15NpActorTemplateINS_15PxParticleFluidEEE
__ZTIN5physx15NpActorTemplateINS_16PxParticleSystemEEE
__ZTIN5physx15NpActorTemplateINS_18PxArticulationLinkEEE
__ZTIN5physx15NpActorTemplateINS_7PxClothEEE
__ZTIN5physx15PxBoxControllerE
__ZTIN5physx15PxParticleFluidE
__ZTIN5physx15PxsCCDSweepTaskE
__ZTIN5physx16PxBroadPhaseBaseE
__ZTIN5physx16PxParticleSystemE
__ZTIN5physx16PxRepXSerializerE
__ZTIN5physx16PxVehicleDrive4WE
__ZTIN5physx16PxVehicleDriveNWE
__ZTIN5physx16PxsSolverEndTaskE
__ZTIN5physx16PxvParticleShapeE
__ZTIN5physx17PxObstacleContextE
__ZTIN5physx17PxsCCDAdvanceTaskE
__ZTIN5physx18PxArticulationLinkE
__ZTIN5physx18PxDeletionListenerE
__ZTIN5physx18PxParticleReadDataE
__ZTIN5physx18PxVehicleDriveTankE
__ZTIN5physx18PxsSolverStartTaskE
__ZTIN5physx18RepXSerializerImplINS_16PxVehicleDrive4WEEE
__ZTIN5physx18RepXSerializerImplINS_16PxVehicleDriveNWEEE
__ZTIN5physx18RepXSerializerImplINS_16PxVehicleNoDriveEEE
__ZTIN5physx18RepXSerializerImplINS_18PxVehicleDriveTankEEE
__ZTIN5physx19NpRigidBodyTemplateINS_14PxRigidDynamicEEE
__ZTIN5physx19NpRigidBodyTemplateINS_18PxArticulationLinkEEE
__ZTIN5physx19PxAllocatorCallbackE
__ZTIN5physx19PxArticulationJointE
__ZTIN5physx19PxCapsuleControllerE
__ZTIN5physx19PxClothParticleDataE
__ZTIN5physx19PxControllerManagerE
__ZTIN5physx19TriangleMeshBuilderE
__ZTIN5physx20NpRigidActorTemplateINS_13PxRigidStaticEEE
__ZTIN5physx20NpRigidActorTemplateINS_14PxRigidDynamicEEE
__ZTIN5physx20NpRigidActorTemplateINS_18PxArticulationLinkEEE
__ZTIN5physx20PxProfileEventSenderE
__ZTIN5physx20PxvParticleSystemSimE
__ZTIN5physx21GuMeshFactoryListenerE
__ZTIN5physx21PxConstraintConnectorE
__ZTIN5physx21PxProfileEventFlusherE
__ZTIN5physx21PxProfileNameProviderE
__ZTIN5physx21PxQueryFilterCallbackE
__ZTIN5physx21PxsFluidCollisionTaskE
__ZTIN5physx22NpParticleBaseTemplateINS_15PxParticleFluidENS_15NpParticleFluidEEE
__ZTIN5physx22NpParticleBaseTemplateINS_16PxParticleSystemENS_16NpParticleSystemEEE
__ZTIN5physx22PxConstraintVisualizerE
__ZTIN5physx22PxvParticleSystemStateE
__ZTIN5physx23ArticulationRootManagerE
__ZTIN5physx23NpParticleFluidReadDataE
__ZTIN5physx23NpVolumeCacheSqCallbackE
__ZTIN5physx23PxBroadcastingAllocatorE
__ZTIN5physx23PxParticleFluidReadDataE
__ZTIN5physx23PxProcessPxBaseCallbackE
__ZTIN5physx23PxVehicleRepXSerializerINS_16PxVehicleDrive4WEEE
__ZTIN5physx23PxVehicleRepXSerializerINS_16PxVehicleDriveNWEEE
__ZTIN5physx23PxVehicleRepXSerializerINS_16PxVehicleNoDriveEEE
__ZTIN5physx23PxVehicleRepXSerializerINS_18PxVehicleDriveTankEEE
__ZTIN5physx23PxsFluidDynamicsSphTaskE
__ZTIN5physx23PxsSolverSetupSolveTaskE
__ZTIN5physx25PxVehicleConstraintShaderE
__ZTIN5physx26NpPhysicsInsertionCallbackE
__ZTIN5physx26PxPhysicsInsertionCallbackE
__ZTIN5physx26PxProfileEventBufferClientE
__ZTIN5physx26PxProfileZoneClientManagerE
__ZTIN5physx26PxSerializerDefaultAdapterINS_16PxVehicleDrive4WEEE
__ZTIN5physx26PxSerializerDefaultAdapterINS_16PxVehicleDriveNWEEE
__ZTIN5physx26PxSerializerDefaultAdapterINS_16PxVehicleNoDriveEEE
__ZTIN5physx26PxSerializerDefaultAdapterINS_18PxVehicleDriveTankEEE
__ZTIN5physx29EntityReportContainerCallbackE
__ZTIN5physx2Cm10FanoutTaskE
__ZTIN5physx2Cm12DelegateTaskINS_10PxsContextEXadL_ZNS2_23prepareCMDiscreteUpdateEPNS_10PxBaseTaskEEEEE
__ZTIN5physx2Cm12DelegateTaskINS_10PxsContextEXadL_ZNS2_28mergeCMDiscreteUpdateResultsEPNS_10PxBaseTaskEEEEE
__ZTIN5physx2Cm12DelegateTaskINS_13PxsCCDContextEXadL_ZNS2_12postCCDSweepEPNS_10PxBaseTaskEEEEE
__ZTIN5physx2Cm12DelegateTaskINS_13PxsCCDContextEXadL_ZNS2_14postCCDAdvanceEPNS_10PxBaseTaskEEEEE
__ZTIN5physx2Cm12DelegateTaskINS_13PxsCCDContextEXadL_ZNS2_18postCCDDepenetrateEPNS_10PxBaseTaskEEEEE
__ZTIN5physx2Cm12DelegateTaskINS_16PxsFluidDynamicsEXadL_ZNS2_10mergeForceEPNS_10PxBaseTaskEEEEE
__ZTIN5physx2Cm12DelegateTaskINS_16PxsFluidDynamicsEXadL_ZNS2_12mergeDensityEPNS_10PxBaseTaskEEEEE
__ZTIN5physx2Cm12DelegateTaskINS_17PxsFluidCollisionEXadL_ZNS2_12mergeResultsEPNS_10PxBaseTaskEEEEE
__ZTIN5physx2Cm12DelegateTaskINS_20PxsParticleSystemSimEXadL_ZNS2_14dynamicsUpdateEPNS_10PxBaseTaskEEEEE
__ZTIN5physx2Cm12DelegateTaskINS_20PxsParticleSystemSimEXadL_ZNS2_15collisionUpdateEPNS_10PxBaseTaskEEEEE
__ZTIN5physx2Cm12DelegateTaskINS_20PxsParticleSystemSimEXadL_ZNS2_18packetShapesUpdateEPNS_10PxBaseTaskEEEEE
__ZTIN5physx2Cm12DelegateTaskINS_20PxsParticleSystemSimEXadL_ZNS2_21collisionFinalizationEPNS_10PxBaseTaskEEEEE
__ZTIN5physx2Cm12DelegateTaskINS_20PxsParticleSystemSimEXadL_ZNS2_24packetShapesFinalizationEPNS_10PxBaseTaskEEEEE
__ZTIN5physx2Cm12DelegateTaskINS_20PxsParticleSystemSimEXadL_ZNS2_25spatialHashUpdateSectionsEPNS_10PxBaseTaskEEEEE
__ZTIN5physx2Cm12DelegateTaskINS_2Sc17ParticleSystemSimEXadL_ZNS3_21prepareCollisionInputEPNS_10PxBaseTaskEEEEE
__ZTIN5physx2Cm12DelegateTaskINS_2Sc5SceneEXadL_ZNS3_10broadPhaseEPNS_10PxBaseTaskEEEEE
__ZTIN5physx2Cm12DelegateTaskINS_2Sc5SceneEXadL_ZNS3_10postSolverEPNS_10PxBaseTaskEEEEE
__ZTIN5physx2Cm12DelegateTaskINS_2Sc5SceneEXadL_ZNS3_11collideStepEPNS_10PxBaseTaskEEEEE
__ZTIN5physx2Cm12DelegateTaskINS_2Sc5SceneEXadL_ZNS3_11postCCDPassEPNS_10PxBaseTaskEEEEE
__ZTIN5physx2Cm12DelegateTaskINS_2Sc5SceneEXadL_ZNS3_13ccdBroadPhaseEPNS_10PxBaseTaskEEEEE
__ZTIN5physx2Cm12DelegateTaskINS_2Sc5SceneEXadL_ZNS3_13postIslandGenEPNS_10PxBaseTaskEEEEE
__ZTIN5physx2Cm12DelegateTaskINS_2Sc5SceneEXadL_ZNS3_15postNarrowPhaseEPNS_10PxBaseTaskEEEEE
__ZTIN5physx2Cm12DelegateTaskINS_2Sc5SceneEXadL_ZNS3_18clothPreprocessingEPNS_10PxBaseTaskEEEEE
__ZTIN5physx2Cm12DelegateTaskINS_2Sc5SceneEXadL_ZNS3_18updateCCDMultiPassEPNS_10PxBaseTaskEEEEE
__ZTIN5physx2Cm12DelegateTaskINS_2Sc5SceneEXadL_ZNS3_19islandGenSecondPassEPNS_10PxBaseTaskEEEEE
__ZTIN5physx2Cm12DelegateTaskINS_2Sc5SceneEXadL_ZNS3_19updateCCDSinglePassEPNS_10PxBaseTaskEEEEE
__ZTIN5physx2Cm12DelegateTaskINS_2Sc5SceneEXadL_ZNS3_20rigidBodyNarrowPhaseEPNS_10PxBaseTaskEEEEE
__ZTIN5physx2Cm12DelegateTaskINS_2Sc5SceneEXadL_ZNS3_23postIslandGenSecondPassEPNS_10PxBaseTaskEEEEE
__ZTIN5physx2Cm12DelegateTaskINS_2Sc5SceneEXadL_ZNS3_6solverEPNS_10PxBaseTaskEEEEE
__ZTIN5physx2Cm12DelegateTaskINS_2Sc5SceneEXadL_ZNS3_9islandGenEPNS_10PxBaseTaskEEEEE
__ZTIN5physx2Cm12DelegateTaskINS_2Sc5SceneEXadL_ZNS3_9solveStepEPNS_10PxBaseTaskEEEEE
__ZTIN5physx2Cm12DelegateTaskINS_7NpSceneEXadL_ZNS2_12executeSceneEPNS_10PxBaseTaskEEEEE
__ZTIN5physx2Cm12DelegateTaskINS_7NpSceneEXadL_ZNS2_12executeSolveEPNS_10PxBaseTaskEEEEE
__ZTIN5physx2Cm12DelegateTaskINS_7NpSceneEXadL_ZNS2_14executeCollideEPNS_10PxBaseTaskEEEEE
__ZTIN5physx2Cm12RefCountableE
__ZTIN5physx2Cm12RenderBufferE
__ZTIN5physx2Cm18DelegateFanoutTaskINS_2Sc5SceneEXadL_ZNS3_14postBroadPhaseEPNS_10PxBaseTaskEEEEE
__ZTIN5physx2Cm18DelegateFanoutTaskINS_2Sc5SceneEXadL_ZNS3_17finalizationPhaseEPNS_10PxBaseTaskEEEEE
__ZTIN5physx2Cm18DelegateFanoutTaskINS_2Sc5SceneEXadL_ZNS3_20particlePostShapeGenEPNS_10PxBaseTaskEEEEE
__ZTIN5physx2Cm29ConstraintImmediateVisualizerE
__ZTIN5physx2Cm4TaskE
__ZTIN5physx2Cm8BaseTaskE
__ZTIN5physx2Gu10SupportMapE
__ZTIN5physx2Gu12EntityReportIjEE
__ZTIN5physx2Gu12SupportLocalE
__ZTIN5physx2Gu15MeshHitCallbackINS_12PxRaycastHitEEE
__ZTIN5physx2Gu16SupportLocalImplINS0_11ConvexHullVEEE
__ZTIN5physx2Gu16SupportLocalImplINS0_18ConvexHullNoScaleVEEE
__ZTIN5physx2Gu16SupportLocalImplINS0_4BoxVEEE
__ZTIN5physx2Gu16SupportLocalImplINS0_9TriangleVEEE
__ZTIN5physx2Gu17EPASupportMapPairE
__ZTIN5physx2Gu19SupportMapLocalImplINS0_11ConvexHullVEEE
__ZTIN5physx2Gu22SupportMapRelativeImplINS0_11ConvexHullVEEE
__ZTIN5physx2Gu22SupportMapRelativeImplINS0_4BoxVEEE
__ZTIN5physx2Gu26EPASupportMapPairLocalImplINS0_8CapsuleVENS0_11ConvexHullVEEE
__ZTIN5physx2Gu26EPASupportMapPairLocalImplINS0_8CapsuleVENS0_4BoxVEEE
__ZTIN5physx2Gu26EPASupportMapPairLocalImplINS0_9TriangleVENS0_11ConvexHullVEEE
__ZTIN5physx2Gu26EPASupportMapPairLocalImplINS0_9TriangleVENS0_4BoxVEEE
__ZTIN5physx2Gu29EPASupportMapPairRelativeImplINS0_11ConvexHullVES2_EE
__ZTIN5physx2Gu29EPASupportMapPairRelativeImplINS0_4BoxVENS0_11ConvexHullVEEE
__ZTIN5physx2Gu29EPASupportMapPairRelativeImplINS0_4BoxVES2_EE
__ZTIN5physx2Gu29EPASupportMapPairRelativeImplINS0_8CapsuleVENS0_11ConvexHullVEEE
__ZTIN5physx2Gu29EPASupportMapPairRelativeImplINS0_8CapsuleVENS0_4BoxVEEE
__ZTIN5physx2Gu29EPASupportMapPairRelativeImplINS0_8CapsuleVES2_EE
__ZTIN5physx2Gu29EPASupportMapPairRelativeImplINS0_9TriangleVENS0_11ConvexHullVEEE
__ZTIN5physx2Gu29EPASupportMapPairRelativeImplINS0_9TriangleVENS0_4BoxVEEE
__ZTIN5physx2Gu29EPASupportMapPairRelativeImplINS0_9TriangleVENS0_8CapsuleVEEE
__ZTIN5physx2Gu32PCMMeshContactGenerationCallbackINS_40PCMConvexVsMeshContactGenerationCallbackEEE
__ZTIN5physx2Gu32PCMMeshContactGenerationCallbackINS_40PCMSphereVsMeshContactGenerationCallbackEEE
__ZTIN5physx2Gu32PCMMeshContactGenerationCallbackINS_41PCMCapsuleVsMeshContactGenerationCallbackEEE
__ZTIN5physx2Gu5RTree15CallbackRaycastE
__ZTIN5physx2Gu5RTree8CallbackE
__ZTIN5physx2Sc10ElementSimE
__ZTIN5physx2Sc11InteractionE
__ZTIN5physx2Sc15CoreInteractionE
__ZTIN5physx2Sc17ParticleSystemSimE
__ZTIN5physx2Sc18ElementInteractionE
__ZTIN5physx2Sc20RbElementInteractionE
__ZTIN5physx2Sq14PrunerCallbackE
__ZTIN5physx2Sq6PrunerE
__ZTIN5physx32PxsSolverConstraintPartitionTaskE
__ZTIN5physx34PxsSolverConstraintPostProcessTaskE
__ZTIN5physx40PCMConvexVsMeshContactGenerationCallbackE
__ZTIN5physx40PCMSphereVsMeshContactGenerationCallbackE
__ZTIN5physx41PCMCapsuleVsMeshContactGenerationCallbackE
__ZTIN5physx5cloth13UserAllocatedE
__ZTIN5physx5cloth5ClothE
__ZTIN5physx5cloth6FabricE
__ZTIN5physx5cloth6SolverE
__ZTIN5physx5cloth7FactoryE
__ZTIN5physx5cloth9ClothImplINS0_7SwClothEEE
__ZTIN5physx6PxBaseE
__ZTIN5physx6shdfnd13UserAllocatedE
__ZTIN5physx7MBPTaskE
__ZTIN5physx7NpActorE
__ZTIN5physx7NpScene15SceneCompletionE
__ZTIN5physx7PxActorE
__ZTIN5physx7PxClothE
__ZTIN5physx7PxSceneE
__ZTIN5physx7PxShapeE
__ZTIN5physx7profile10DataBufferINS_6shdfnd6MutexTINS0_26WrapperReflectionAllocatorIhEEEENS0_14ScopedLockImplIS6_EEEE
__ZTIN5physx7profile11EventBufferINS_24PxDefaultContextProviderENS_6shdfnd6MutexTINS0_26WrapperReflectionAllocatorIhEEEENS0_14ScopedLockImplIS7_EENS_24PxProfileNullEventFilterEEE
__ZTIN5physx7profile8ZoneImplINS_28PxProfileNameProviderForwardEEE
__ZTIN5physx9NpPhysics20MeshDeletionListenerE
__ZTIN5physx9PxCookingE
__ZTIN5physx9PxPhysicsE
__ZTINSt3__112future_errorE
__ZTINSt3__113basic_istreamIcNS_11char_traitsIcEEEE
__ZTINSt3__113basic_ostreamIcNS_11char_traitsIcEEEE
__ZTINSt3__114basic_iostreamIcNS_11char_traitsIcEEEE
__ZTINSt3__115basic_streambufIcNS_11char_traitsIcEEEE
__ZTINSt3__115basic_stringbufIcNS_11char_traitsIcEENS_9allocatorIcEEEE
__ZTINSt3__118basic_stringstreamIcNS_11char_traitsIcEENS_9allocatorIcEEEE
__ZTINSt3__119__shared_weak_countE
__ZTINSt3__119basic_ostringstreamIcNS_11char_traitsIcEENS_9allocatorIcEEEE
__ZTISt9bad_alloc
__ZTISt9exception
__ZTIZNK5physx26PxSerializerDefaultAdapterINS_16PxVehicleDrive4WEE18registerReferencesERNS_6PxBaseERNS_22PxSerializationContextEE16RequiresCallback
__ZTIZNK5physx26PxSerializerDefaultAdapterINS_16PxVehicleDriveNWEE18registerReferencesERNS_6PxBaseERNS_22PxSerializationContextEE16RequiresCallback
__ZTIZNK5physx26PxSerializerDefaultAdapterINS_16PxVehicleNoDriveEE18registerReferencesERNS_6PxBaseERNS_22PxSerializationContextEE16RequiresCallback
__ZTIZNK5physx26PxSerializerDefaultAdapterINS_18PxVehicleDriveTankEE18registerReferencesERNS_6PxBaseERNS_22PxSerializationContextEE16RequiresCallback
__ZTS15PxsCMUpdateTask
__ZTS16ControllerFilter
__ZTS16PxOverflowBufferIN5physx10PxSweepHitEE
__ZTS16PxOverflowBufferIN5physx12PxOverlapHitEE
__ZTS16PxOverflowBufferIN5physx12PxRaycastHitEE
__ZTS16RTreeCookerRemap
__ZTS16RayRTreeCallbackILi0ELb0EE
__ZTS16RayRTreeCallbackILi0ELb1EE
__ZTS16RayRTreeCallbackILi1ELb0EE
__ZTS16RayRTreeCallbackILi1ELb1EE
__ZTS18MultiQueryCallbackIN5physx10PxSweepHitEE
__ZTS18MultiQueryCallbackIN5physx12PxOverlapHitEE
__ZTS18MultiQueryCallbackIN5physx12PxRaycastHitEE
__ZTS20SweepCapsuleCallback
__ZTS21BoxTraceSegmentReport
__ZTS21PxsCreateFinalizeTask
__ZTS21PxsParallelSolverTask
__ZTS23PxsCMDiscreteUpdateTask
__ZTS23RayMeshColliderCallback
__ZTS23SweepBoxMeshHitCallback
__ZTS24ConvexVsHeightfieldSweep
__ZTS24MidPhaseQueryLocalReport
__ZTS25CapsuleTraceSegmentReport
__ZTS25ConvexVsMeshSweepCallback
__ZTS25MeshMTDGenerationCallback
__ZTS26ContactCapsuleMeshCallback
__ZTS26IntersectAnyVsMeshCallbackILi0ELb0EE
__ZTS26IntersectAnyVsMeshCallbackILi0ELb1EE
__ZTS26IntersectAnyVsMeshCallbackILi1ELb0EE
__ZTS26IntersectAnyVsMeshCallbackILi1ELb1EE
__ZTS26IntersectAnyVsMeshCallbackILi2ELb0EE
__ZTS26IntersectAnyVsMeshCallbackILi2ELb1EE
__ZTS26PxcContactCellMeshCallback
__ZTS27ConvexVsMeshOverlapCallback
__ZTS37ConvexVsMeshContactGenerationCallback
__ZTS43CapsuleHeightfieldContactGenerationCallback
__ZTS44ConvexVsHeightfieldContactGenerationCallback
__ZTSN5physx10PxBaseTaskE
__ZTSN5physx10PxMaterialE
__ZTSN5physx11EdgeManagerE
__ZTSN5physx11ElemManagerINS_16ArticulationRootEjEE
__ZTSN5physx11ElemManagerINS_4EdgeEjEE
__ZTSN5physx11ElemManagerINS_4NodeEjEE
__ZTSN5physx11ElemManagerINS_6IslandEjEE
__ZTSN5physx11NodeManagerE
__ZTSN5physx11PxAggregateE
__ZTSN5physx11PxHitBufferINS_10PxSweepHitEEE
__ZTSN5physx11PxHitBufferINS_12PxOverlapHitEEE
__ZTSN5physx11PxHitBufferINS_12PxRaycastHitEEE
__ZTSN5physx11PxRigidBodyE
__ZTSN5physx11RTreeCooker13RemapCallbackE
__ZTSN5physx12PxBatchQueryE
__ZTSN5physx12PxConstraintE
__ZTSN5physx12PxControllerE
__ZTSN5physx12PxConvexMeshE
__ZTSN5physx12PxFoundationE
__ZTSN5physx12PxLockedDataE
__ZTSN5physx12PxRigidActorE
__ZTSN5physx12PxSerializerE
__ZTSN5physx13IslandManagerE
__ZTSN5physx13PxClothFabricE
__ZTSN5physx13PxHeightFieldE
__ZTSN5physx13PxHitCallbackINS_10PxSweepHitEEE
__ZTSN5physx13PxHitCallbackINS_12PxOverlapHitEEE
__ZTSN5physx13PxHitCallbackINS_12PxRaycastHitEEE
__ZTSN5physx13PxInputStreamE
__ZTSN5physx13PxProfileZoneE
__ZTSN5physx13PxRigidStaticE
__ZTSN5physx13PxTaskManagerE
__ZTSN5physx13PxVolumeCacheE
__ZTSN5physx13PxsSolverCoreE
__ZTSN5physx13PxvBroadPhaseE
__ZTSN5physx14PxArticulationE
__ZTSN5physx14PxLightCpuTaskE
__ZTSN5physx14PxOutputStreamE
__ZTSN5physx14PxParticleBaseE
__ZTSN5physx14PxRenderBufferE
__ZTSN5physx14PxRigidDynamicE
__ZTSN5physx14PxTriangleMeshE
__ZTSN5physx14PxVehicleDriveE
__ZTSN5physx15NpActorTemplateINS_13PxRigidStaticEEE
__ZTSN5physx15NpActorTemplateINS_14PxRigidDynamicEEE
__ZTSN5physx15NpActorTemplateINS_15PxParticleFluidEEE
__ZTSN5physx15NpActorTemplateINS_16PxParticleSystemEEE
__ZTSN5physx15NpActorTemplateINS_18PxArticulationLinkEEE
__ZTSN5physx15NpActorTemplateINS_7PxClothEEE
__ZTSN5physx15PxBoxControllerE
__ZTSN5physx15PxParticleFluidE
__ZTSN5physx15PxsCCDSweepTaskE
__ZTSN5physx16PxBroadPhaseBaseE
__ZTSN5physx16PxParticleSystemE
__ZTSN5physx16PxRepXSerializerE
__ZTSN5physx16PxVehicleDrive4WE
__ZTSN5physx16PxVehicleDriveNWE
__ZTSN5physx16PxsSolverEndTaskE
__ZTSN5physx16PxvParticleShapeE
__ZTSN5physx17PxObstacleContextE
__ZTSN5physx17PxsCCDAdvanceTaskE
__ZTSN5physx18PxArticulationLinkE
__ZTSN5physx18PxDeletionListenerE
__ZTSN5physx18PxParticleReadDataE
__ZTSN5physx18PxVehicleDriveTankE
__ZTSN5physx18PxsSolverStartTaskE
__ZTSN5physx18RepXSerializerImplINS_16PxVehicleDrive4WEEE
__ZTSN5physx18RepXSerializerImplINS_16PxVehicleDriveNWEEE
__ZTSN5physx18RepXSerializerImplINS_16PxVehicleNoDriveEEE
__ZTSN5physx18RepXSerializerImplINS_18PxVehicleDriveTankEEE
__ZTSN5physx19NpRigidBodyTemplateINS_14PxRigidDynamicEEE
__ZTSN5physx19NpRigidBodyTemplateINS_18PxArticulationLinkEEE
__ZTSN5physx19PxAllocatorCallbackE
__ZTSN5physx19PxArticulationJointE
__ZTSN5physx19PxCapsuleControllerE
__ZTSN5physx19PxClothParticleDataE
__ZTSN5physx19PxControllerManagerE
__ZTSN5physx19TriangleMeshBuilderE
__ZTSN5physx20NpRigidActorTemplateINS_13PxRigidStaticEEE
__ZTSN5physx20NpRigidActorTemplateINS_14PxRigidDynamicEEE
__ZTSN5physx20NpRigidActorTemplateINS_18PxArticulationLinkEEE
__ZTSN5physx20PxProfileEventSenderE
__ZTSN5physx20PxvParticleSystemSimE
__ZTSN5physx21GuMeshFactoryListenerE
__ZTSN5physx21PxConstraintConnectorE
__ZTSN5physx21PxProfileEventFlusherE
__ZTSN5physx21PxProfileNameProviderE
__ZTSN5physx21PxQueryFilterCallbackE
__ZTSN5physx21PxsFluidCollisionTaskE
__ZTSN5physx22NpParticleBaseTemplateINS_15PxParticleFluidENS_15NpParticleFluidEEE
__ZTSN5physx22NpParticleBaseTemplateINS_16PxParticleSystemENS_16NpParticleSystemEEE
__ZTSN5physx22PxConstraintVisualizerE
__ZTSN5physx22PxvParticleSystemStateE
__ZTSN5physx23ArticulationRootManagerE
__ZTSN5physx23NpParticleFluidReadDataE
__ZTSN5physx23NpVolumeCacheSqCallbackE
__ZTSN5physx23PxBroadcastingAllocatorE
__ZTSN5physx23PxParticleFluidReadDataE
__ZTSN5physx23PxProcessPxBaseCallbackE
__ZTSN5physx23PxVehicleRepXSerializerINS_16PxVehicleDrive4WEEE
__ZTSN5physx23PxVehicleRepXSerializerINS_16PxVehicleDriveNWEEE
__ZTSN5physx23PxVehicleRepXSerializerINS_16PxVehicleNoDriveEEE
__ZTSN5physx23PxVehicleRepXSerializerINS_18PxVehicleDriveTankEEE
__ZTSN5physx23PxsFluidDynamicsSphTaskE
__ZTSN5physx23PxsSolverSetupSolveTaskE
__ZTSN5physx25PxVehicleConstraintShaderE
__ZTSN5physx26NpPhysicsInsertionCallbackE
__ZTSN5physx26PxPhysicsInsertionCallbackE
__ZTSN5physx26PxProfileEventBufferClientE
__ZTSN5physx26PxProfileZoneClientManagerE
__ZTSN5physx26PxSerializerDefaultAdapterINS_16PxVehicleDrive4WEEE
__ZTSN5physx26PxSerializerDefaultAdapterINS_16PxVehicleDriveNWEEE
__ZTSN5physx26PxSerializerDefaultAdapterINS_16PxVehicleNoDriveEEE
__ZTSN5physx26PxSerializerDefaultAdapterINS_18PxVehicleDriveTankEEE
__ZTSN5physx29EntityReportContainerCallbackE
__ZTSN5physx2Cm10FanoutTaskE
__ZTSN5physx2Cm12DelegateTaskINS_10PxsContextEXadL_ZNS2_23prepareCMDiscreteUpdateEPNS_10PxBaseTaskEEEEE
__ZTSN5physx2Cm12DelegateTaskINS_10PxsContextEXadL_ZNS2_28mergeCMDiscreteUpdateResultsEPNS_10PxBaseTaskEEEEE
__ZTSN5physx2Cm12DelegateTaskINS_13PxsCCDContextEXadL_ZNS2_12postCCDSweepEPNS_10PxBaseTaskEEEEE
__ZTSN5physx2Cm12DelegateTaskINS_13PxsCCDContextEXadL_ZNS2_14postCCDAdvanceEPNS_10PxBaseTaskEEEEE
__ZTSN5physx2Cm12DelegateTaskINS_13PxsCCDContextEXadL_ZNS2_18postCCDDepenetrateEPNS_10PxBaseTaskEEEEE
__ZTSN5physx2Cm12DelegateTaskINS_16PxsFluidDynamicsEXadL_ZNS2_10mergeForceEPNS_10PxBaseTaskEEEEE
__ZTSN5physx2Cm12DelegateTaskINS_16PxsFluidDynamicsEXadL_ZNS2_12mergeDensityEPNS_10PxBaseTaskEEEEE
__ZTSN5physx2Cm12DelegateTaskINS_17PxsFluidCollisionEXadL_ZNS2_12mergeResultsEPNS_10PxBaseTaskEEEEE
__ZTSN5physx2Cm12DelegateTaskINS_20PxsParticleSystemSimEXadL_ZNS2_14dynamicsUpdateEPNS_10PxBaseTaskEEEEE
__ZTSN5physx2Cm12DelegateTaskINS_20PxsParticleSystemSimEXadL_ZNS2_15collisionUpdateEPNS_10PxBaseTaskEEEEE
__ZTSN5physx2Cm12DelegateTaskINS_20PxsParticleSystemSimEXadL_ZNS2_18packetShapesUpdateEPNS_10PxBaseTaskEEEEE
__ZTSN5physx2Cm12DelegateTaskINS_20PxsParticleSystemSimEXadL_ZNS2_21collisionFinalizationEPNS_10PxBaseTaskEEEEE
__ZTSN5physx2Cm12DelegateTaskINS_20PxsParticleSystemSimEXadL_ZNS2_24packetShapesFinalizationEPNS_10PxBaseTaskEEEEE
__ZTSN5physx2Cm12DelegateTaskINS_20PxsParticleSystemSimEXadL_ZNS2_25spatialHashUpdateSectionsEPNS_10PxBaseTaskEEEEE
__ZTSN5physx2Cm12DelegateTaskINS_2Sc17ParticleSystemSimEXadL_ZNS3_21prepareCollisionInputEPNS_10PxBaseTaskEEEEE
__ZTSN5physx2Cm12DelegateTaskINS_2Sc5SceneEXadL_ZNS3_10broadPhaseEPNS_10PxBaseTaskEEEEE
__ZTSN5physx2Cm12DelegateTaskINS_2Sc5SceneEXadL_ZNS3_10postSolverEPNS_10PxBaseTaskEEEEE
__ZTSN5physx2Cm12DelegateTaskINS_2Sc5SceneEXadL_ZNS3_11collideStepEPNS_10PxBaseTaskEEEEE
__ZTSN5physx2Cm12DelegateTaskINS_2Sc5SceneEXadL_ZNS3_11postCCDPassEPNS_10PxBaseTaskEEEEE
__ZTSN5physx2Cm12DelegateTaskINS_2Sc5SceneEXadL_ZNS3_13ccdBroadPhaseEPNS_10PxBaseTaskEEEEE
__ZTSN5physx2Cm12DelegateTaskINS_2Sc5SceneEXadL_ZNS3_13postIslandGenEPNS_10PxBaseTaskEEEEE
__ZTSN5physx2Cm12DelegateTaskINS_2Sc5SceneEXadL_ZNS3_15postNarrowPhaseEPNS_10PxBaseTaskEEEEE
__ZTSN5physx2Cm12DelegateTaskINS_2Sc5SceneEXadL_ZNS3_18clothPreprocessingEPNS_10PxBaseTaskEEEEE
__ZTSN5physx2Cm12DelegateTaskINS_2Sc5SceneEXadL_ZNS3_18updateCCDMultiPassEPNS_10PxBaseTaskEEEEE
__ZTSN5physx2Cm12DelegateTaskINS_2Sc5SceneEXadL_ZNS3_19islandGenSecondPassEPNS_10PxBaseTaskEEEEE
__ZTSN5physx2Cm12DelegateTaskINS_2Sc5SceneEXadL_ZNS3_19updateCCDSinglePassEPNS_10PxBaseTaskEEEEE
__ZTSN5physx2Cm12DelegateTaskINS_2Sc5SceneEXadL_ZNS3_20rigidBodyNarrowPhaseEPNS_10PxBaseTaskEEEEE
__ZTSN5physx2Cm12DelegateTaskINS_2Sc5SceneEXadL_ZNS3_23postIslandGenSecondPassEPNS_10PxBaseTaskEEEEE
__ZTSN5physx2Cm12DelegateTaskINS_2Sc5SceneEXadL_ZNS3_6solverEPNS_10PxBaseTaskEEEEE
__ZTSN5physx2Cm12DelegateTaskINS_2Sc5SceneEXadL_ZNS3_9islandGenEPNS_10PxBaseTaskEEEEE
__ZTSN5physx2Cm12DelegateTaskINS_2Sc5SceneEXadL_ZNS3_9solveStepEPNS_10PxBaseTaskEEEEE
__ZTSN5physx2Cm12DelegateTaskINS_7NpSceneEXadL_ZNS2_12executeSceneEPNS_10PxBaseTaskEEEEE
__ZTSN5physx2Cm12DelegateTaskINS_7NpSceneEXadL_ZNS2_12executeSolveEPNS_10PxBaseTaskEEEEE
__ZTSN5physx2Cm12DelegateTaskINS_7NpSceneEXadL_ZNS2_14executeCollideEPNS_10PxBaseTaskEEEEE
__ZTSN5physx2Cm12RefCountableE
__ZTSN5physx2Cm12RenderBufferE
__ZTSN5physx2Cm18DelegateFanoutTaskINS_2Sc5SceneEXadL_ZNS3_14postBroadPhaseEPNS_10PxBaseTaskEEEEE
__ZTSN5physx2Cm18DelegateFanoutTaskINS_2Sc5SceneEXadL_ZNS3_17finalizationPhaseEPNS_10PxBaseTaskEEEEE
__ZTSN5physx2Cm18DelegateFanoutTaskINS_2Sc5SceneEXadL_ZNS3_20particlePostShapeGenEPNS_10PxBaseTaskEEEEE
__ZTSN5physx2Cm29ConstraintImmediateVisualizerE
__ZTSN5physx2Cm4TaskE
__ZTSN5physx2Cm8BaseTaskE
__ZTSN5physx2Gu10SupportMapE
__ZTSN5physx2Gu12EntityReportIjEE
__ZTSN5physx2Gu12SupportLocalE
__ZTSN5physx2Gu15MeshHitCallbackINS_12PxRaycastHitEEE
__ZTSN5physx2Gu16SupportLocalImplINS0_11ConvexHullVEEE
__ZTSN5physx2Gu16SupportLocalImplINS0_18ConvexHullNoScaleVEEE
__ZTSN5physx2Gu16SupportLocalImplINS0_4BoxVEEE
__ZTSN5physx2Gu16SupportLocalImplINS0_9TriangleVEEE
__ZTSN5physx2Gu17EPASupportMapPairE
__ZTSN5physx2Gu19SupportMapLocalImplINS0_11ConvexHullVEEE
__ZTSN5physx2Gu22SupportMapRelativeImplINS0_11ConvexHullVEEE
__ZTSN5physx2Gu22SupportMapRelativeImplINS0_4BoxVEEE
__ZTSN5physx2Gu26EPASupportMapPairLocalImplINS0_8CapsuleVENS0_11ConvexHullVEEE
__ZTSN5physx2Gu26EPASupportMapPairLocalImplINS0_8CapsuleVENS0_4BoxVEEE
__ZTSN5physx2Gu26EPASupportMapPairLocalImplINS0_9TriangleVENS0_11ConvexHullVEEE
__ZTSN5physx2Gu26EPASupportMapPairLocalImplINS0_9TriangleVENS0_4BoxVEEE
__ZTSN5physx2Gu29EPASupportMapPairRelativeImplINS0_11ConvexHullVES2_EE
__ZTSN5physx2Gu29EPASupportMapPairRelativeImplINS0_4BoxVENS0_11ConvexHullVEEE
__ZTSN5physx2Gu29EPASupportMapPairRelativeImplINS0_4BoxVES2_EE
__ZTSN5physx2Gu29EPASupportMapPairRelativeImplINS0_8CapsuleVENS0_11ConvexHullVEEE
__ZTSN5physx2Gu29EPASupportMapPairRelativeImplINS0_8CapsuleVENS0_4BoxVEEE
__ZTSN5physx2Gu29EPASupportMapPairRelativeImplINS0_8CapsuleVES2_EE
__ZTSN5physx2Gu29EPASupportMapPairRelativeImplINS0_9TriangleVENS0_11ConvexHullVEEE
__ZTSN5physx2Gu29EPASupportMapPairRelativeImplINS0_9TriangleVENS0_4BoxVEEE
__ZTSN5physx2Gu29EPASupportMapPairRelativeImplINS0_9TriangleVENS0_8CapsuleVEEE
__ZTSN5physx2Gu32PCMMeshContactGenerationCallbackINS_40PCMConvexVsMeshContactGenerationCallbackEEE
__ZTSN5physx2Gu32PCMMeshContactGenerationCallbackINS_40PCMSphereVsMeshContactGenerationCallbackEEE
__ZTSN5physx2Gu32PCMMeshContactGenerationCallbackINS_41PCMCapsuleVsMeshContactGenerationCallbackEEE
__ZTSN5physx2Gu5RTree15CallbackRaycastE
__ZTSN5physx2Gu5RTree8CallbackE
__ZTSN5physx2Sc10ElementSimE
__ZTSN5physx2Sc11InteractionE
__ZTSN5physx2Sc15CoreInteractionE
__ZTSN5physx2Sc17ParticleSystemSimE
__ZTSN5physx2Sc18ElementInteractionE
__ZTSN5physx2Sc20RbElementInteractionE
__ZTSN5physx2Sq14PrunerCallbackE
__ZTSN5physx2Sq6PrunerE
__ZTSN5physx32PxsSolverConstraintPartitionTaskE
__ZTSN5physx34PxsSolverConstraintPostProcessTaskE
__ZTSN5physx40PCMConvexVsMeshContactGenerationCallbackE
__ZTSN5physx40PCMSphereVsMeshContactGenerationCallbackE
__ZTSN5physx41PCMCapsuleVsMeshContactGenerationCallbackE
__ZTSN5physx5cloth13UserAllocatedE
__ZTSN5physx5cloth5ClothE
__ZTSN5physx5cloth6FabricE
__ZTSN5physx5cloth6SolverE
__ZTSN5physx5cloth7FactoryE
__ZTSN5physx5cloth9ClothImplINS0_7SwClothEEE
__ZTSN5physx6PxBaseE
__ZTSN5physx6shdfnd13UserAllocatedE
__ZTSN5physx7MBPTaskE
__ZTSN5physx7NpActorE
__ZTSN5physx7NpScene15SceneCompletionE
__ZTSN5physx7PxActorE
__ZTSN5physx7PxClothE
__ZTSN5physx7PxSceneE
__ZTSN5physx7PxShapeE
__ZTSN5physx7profile10DataBufferINS_6shdfnd6MutexTINS0_26WrapperReflectionAllocatorIhEEEENS0_14ScopedLockImplIS6_EEEE
__ZTSN5physx7profile11EventBufferINS_24PxDefaultContextProviderENS_6shdfnd6MutexTINS0_26WrapperReflectionAllocatorIhEEEENS0_14ScopedLockImplIS7_EENS_24PxProfileNullEventFilterEEE
__ZTSN5physx7profile8ZoneImplINS_28PxProfileNameProviderForwardEEE
__ZTSN5physx9NpPhysics20MeshDeletionListenerE
__ZTSN5physx9PxCookingE
__ZTSN5physx9PxPhysicsE
__ZTSNSt3__115basic_stringbufIcNS_11char_traitsIcEENS_9allocatorIcEEEE
__ZTSNSt3__118basic_stringstreamIcNS_11char_traitsIcEENS_9allocatorIcEEEE
__ZTSNSt3__119basic_ostringstreamIcNS_11char_traitsIcEENS_9allocatorIcEEEE
__ZTSZNK5physx26PxSerializerDefaultAdapterINS_16PxVehicleDrive4WEE18registerReferencesERNS_6PxBaseERNS_22PxSerializationContextEE16RequiresCallback
__ZTSZNK5physx26PxSerializerDefaultAdapterINS_16PxVehicleDriveNWEE18registerReferencesERNS_6PxBaseERNS_22PxSerializationContextEE16RequiresCallback
__ZTSZNK5physx26PxSerializerDefaultAdapterINS_16PxVehicleNoDriveEE18registerReferencesERNS_6PxBaseERNS_22PxSerializationContextEE16RequiresCallback
__ZTSZNK5physx26PxSerializerDefaultAdapterINS_18PxVehicleDriveTankEE18registerReferencesERNS_6PxBaseERNS_22PxSerializationContextEE16RequiresCallback
__ZTVN10__cxxabiv117__class_type_infoE
__ZTVN10__cxxabiv119__pointer_type_infoE
__ZTVN10__cxxabiv120__function_type_infoE
__ZTVN10__cxxabiv120__si_class_type_infoE
__ZTVN10__cxxabiv121__vmi_class_type_infoE
__ZTVN5physx23PxVehicleRepXSerializerINS_16PxVehicleDrive4WEEE
__ZTVN5physx23PxVehicleRepXSerializerINS_16PxVehicleDriveNWEEE
__ZTVN5physx23PxVehicleRepXSerializerINS_16PxVehicleNoDriveEEE
__ZTVN5physx23PxVehicleRepXSerializerINS_18PxVehicleDriveTankEEE
__ZTVNSt3__114__shared_countE
__ZTVNSt3__119__shared_weak_countE
__ZTVNSt3__18ios_baseE
__ZTVNSt3__19basic_iosIcNS_11char_traitsIcEEEE
__ZTVSt9exception
__ZThn8_NSt3__114basic_iostreamIcNS_11char_traitsIcEEED0Ev
__ZThn8_NSt3__114basic_iostreamIcNS_11char_traitsIcEEED1Ev
__ZTv0_n12_NSt3__113basic_istreamIcNS_11char_traitsIcEEED0Ev
__ZTv0_n12_NSt3__113basic_istreamIcNS_11char_traitsIcEEED1Ev
__ZTv0_n12_NSt3__113basic_ostreamIcNS_11char_traitsIcEEED0Ev
__ZTv0_n12_NSt3__113basic_ostreamIcNS_11char_traitsIcEEED1Ev
__ZTv0_n12_NSt3__114basic_iostreamIcNS_11char_traitsIcEEED0Ev
__ZTv0_n12_NSt3__114basic_iostreamIcNS_11char_traitsIcEEED1Ev
___CFConstantStringClassReference
___assert_rtn
___cxa_allocate_exception
___cxa_atexit
___cxa_begin_catch
___cxa_call_unexpected
___cxa_end_catch
___cxa_free_exception
___cxa_guard_abort
___cxa_guard_acquire
___cxa_guard_release
___cxa_pure_virtual
___cxa_rethrow
___cxa_throw
___divdi3
___divmodsi4
___divsi3
___error
___exp10
___fixdfdi
___fixsfdi
___fixunsdfdi
___fixunssfdi
___floatdidf
___floatdisf
___floatundidf
___floatundisf
___gxx_personality_sj0
___maskrune
___memcpy_chk
___memset_chk
___moddi3
___modsi3
___objc_personality_v0
___sincos_stret
___sincosf_stret
___snprintf_chk
___stack_chk_fail
___stack_chk_guard
___stderrp
___stdinp
___stdoutp
___strlcat_chk
___strlcpy_chk
___strncat_chk
___tolower
___udivdi3
___udivmodsi4
___udivsi3
___umoddi3
___umodsi3
___vsnprintf_chk
__dispatch_main_q
__dyld_get_image_name
__dyld_get_image_vmaddr_slide
__dyld_image_count
__dyld_register_func_for_add_image
__dyld_register_func_for_remove_image
__mh_execute_header
__objc_empty_cache
__objc_empty_vtable
__setjmp
_abort
_accept
_access
_acos
_acosf
_arc4random
_arc4random_uniform
_asin
_asinf
_asprintf
_atan
_atan2
_atan2f
_atanf
_atexit
_atoi
_atol
_backtrace
_bcopy
_bind
_bsearch
_bzero
_calloc
_ceil
_ceilf
_class_addMethod
_class_addProperty
_class_addProtocol
_class_conformsToProtocol
_class_copyPropertyList
_class_getClassMethod
_class_getInstanceMethod
_class_getInstanceSize
_class_getInstanceVariable
_class_getIvarLayout
_class_getName
_class_getProperty
_class_getSuperclass
_class_isMetaClass
_class_replaceMethod
_class_respondsToSelector
_clearerr
_clock
_close
_closedir
_confstr
_connect
_cos
_cosf
_deflate
_deflateEnd
_deflateInit2_
_difftime
_dispatch_after
_dispatch_async
_dispatch_data_create
_dispatch_data_create_concat
_dispatch_data_create_map
_dispatch_data_create_subrange
_dispatch_get_global_queue
_dispatch_group_async
_dispatch_group_create
_dispatch_group_enter
_dispatch_group_leave
_dispatch_group_notify
_dispatch_group_wait
_dispatch_once
_dispatch_queue_create
_dispatch_release
_dispatch_semaphore_create
_dispatch_semaphore_signal
_dispatch_semaphore_wait
_dispatch_sync
_dispatch_time
_dladdr
_dlclose
_dlerror
_dlopen
_dlsym
_exception_raise
_exception_raise_state
_exception_raise_state_identity
_exit
_exp
_exp2
_exp2f
_expf
_fabs
_fabsf
_fchmod
_fchown
_fclose
_fcntl
_fegetenv
_feof
_ferror
_fesetenv
_fflush
_fileno
_flock
_floor
_floorf
_fmod
_fmodf
_fopen
_fork
_fprintf
_fputc
_fread
_free
_freeaddrinfo
_freeifaddrs
_freelocale
_frexp
_fsctl
_fseek
_fstat
_fstatfs
_fsync
_ftell
_ftruncate
_futimes
_fwrite
_gai_strerror
_getaddrinfo
_getc
_getcwd
_getenv
_geteuid
_gethostbyname
_gethostname
_getifaddrs
_getnameinfo
_getpagesize
_getpid
_getprogname
_getpwuid
_getsockname
_getsockopt
_gettimeofday
_getuid
_glBindRenderbuffer
_glBindTexture
_glBlitFramebuffer
_glDeleteFramebuffers
_glDeleteRenderbuffers
_glDeleteTextures
_glDiscardFramebufferEXT
_glFinish
_glFramebufferRenderbuffer
_glFramebufferTexture2D
_glGenFramebuffers
_glGenRenderbuffers
_glGenTextures
_glGetError
_glGetIntegerv
_glInvalidateFramebuffer
_glRenderbufferStorage
_glRenderbufferStorageMultisample
_glRenderbufferStorageMultisampleAPPLE
_glResolveMultisampleFramebufferAPPLE
_glTexImage2D
_glTexParameteri
_gmtime
_hash_create
_hash_search
_host_page_size
_host_statistics
_inet_addr
_inet_aton
_inet_ntoa
_inet_ntop
_inet_pton
_inflate
_inflateEnd
_inflateInit2_
_ioctl
_ivar_getName
_ivar_getOffset
_kABGroupNameProperty
_kABPersonFirstNameProperty
_kABPersonLastNameProperty
_kCFAllocatorDefault
_kCFAllocatorSystemDefault
_kCFBooleanTrue
_kCFBundleIdentifierKey
_kCFBundleVersionKey
_kCFCoreFoundationVersionNumber
_kCFRunLoopDefaultMode
_kCLDistanceFilterNone
_kCLLocationAccuracyBest
_kCLLocationAccuracyHundredMeters
_kCLLocationAccuracyKilometer
_kCLLocationAccuracyNearestTenMeters
_kCLLocationAccuracyThreeKilometers
_kCMTimeZero
_kCTFontFamilyNameAttribute
_kCTFontNameAttribute
_kCTFontStyleNameAttribute
_kCTFontSymbolicTrait
_kCTFontTraitsAttribute
_kCTFontURLAttribute
_kCVPixelBufferHeightKey
_kCVPixelBufferIOSurfacePropertiesKey
_kCVPixelBufferMetalCompatibilityKey
_kCVPixelBufferOpenGLESCompatibilityKey
_kCVPixelBufferPixelFormatTypeKey
_kCVPixelBufferWidthKey
_kEAGLColorFormatRGBA8
_kEAGLDrawablePropertyColorFormat
_kEAGLDrawablePropertyRetainedBacking
_kSecAttrAccessible
_kSecAttrAccessibleAfterFirstUnlock
_kSecAttrAccessibleAfterFirstUnlockThisDeviceOnly
_kSecAttrAccount
_kSecAttrApplicationTag
_kSecAttrGeneric
_kSecAttrKeyClass
_kSecAttrKeyClassPrivate
_kSecAttrKeyClassPublic
_kSecAttrKeyType
_kSecAttrKeyTypeRSA
_kSecAttrLabel
_kSecAttrService
_kSecClass
_kSecClassGenericPassword
_kSecClassKey
_kSecMatchLimit
_kSecMatchLimitOne
_kSecRandomDefault
_kSecReturnData
_kSecReturnRef
_kSecValueData
_ldexp
_listen
_localtime
_log
_log10
_log10f
_log2f
_logf
_longjmp
_lseek
_lstat
_mach_absolute_time
_mach_host_self
_mach_make_memory_entry_64
_mach_msg
_mach_port_allocate
_mach_port_deallocate
_mach_port_insert_right
_mach_port_mod_refs
_mach_port_move_member
_mach_port_request_notification
_mach_task_self_
_mach_thread_self
_mach_timebase_info
_malloc
_malloc_create_zone
_malloc_default_zone
_malloc_destroy_zone
_malloc_set_zone_name
_malloc_size
_malloc_zone_free
_malloc_zone_malloc
_malloc_zone_realloc
_memchr
_memcmp
_memcpy
_memmove
_memset
_memset_pattern16
_method_getTypeEncoding
_method_invoke
_method_setImplementation
_mkdir
_mkstemp
_mktime
_mmap
_modf
_modff
_mprotect
_munmap
_nanosleep
_newlocale
_objc_allocateClassPair
_objc_autorelease
_objc_autoreleasePoolPop
_objc_autoreleasePoolPush
_objc_autoreleaseReturnValue
_objc_begin_catch
_objc_constructInstance
_objc_copyClassNamesForImage
_objc_copyStruct
_objc_copyWeak
_objc_destroyWeak
_objc_end_catch
_objc_enumerationMutation
_objc_exception_rethrow
_objc_exception_throw
_objc_getClass
_objc_getMetaClass
_objc_getProperty
_objc_getProtocol
_objc_getRequiredClass
_objc_initWeak
_objc_initializeClassPair
_objc_loadWeakRetained
_objc_lookUpClass
_objc_msgSend
_objc_msgSendSuper
_objc_msgSendSuper2
_objc_msgSend_stret
_objc_readClassPair
_objc_registerClassPair
_objc_release
_objc_retain
_objc_retainAutorelease
_objc_retainAutoreleaseReturnValue
_objc_retainAutoreleasedReturnValue
_objc_retainBlock
_objc_setProperty_atomic
_objc_setProperty_atomic_copy
_objc_setProperty_nonatomic
_objc_setProperty_nonatomic_copy
_objc_storeStrong
_objc_storeWeak
_objc_sync_enter
_objc_sync_exit
_objc_terminate
_object_getClass
_object_getIndexedIvars
_object_getIvar
_object_setIvar
_open
_opendir
_perror
_pipe
_poll
_posix_memalign
_pow
_powf
_pread
_printf
_property_copyAttributeList
_property_getAttributes
_property_getName
_protocol_getMethodDescription
_protocol_getName
_pthread_atfork
_pthread_attr_destroy
_pthread_attr_init
_pthread_attr_setdetachstate
_pthread_attr_setschedparam
_pthread_attr_setschedpolicy
_pthread_attr_setstacksize
_pthread_cond_broadcast
_pthread_cond_destroy
_pthread_cond_init
_pthread_cond_signal
_pthread_cond_timedwait
_pthread_cond_timedwait_relative_np
_pthread_cond_wait
_pthread_condattr_destroy
_pthread_condattr_init
_pthread_create
_pthread_detach
_pthread_equal
_pthread_get_stackaddr_np
_pthread_getschedparam
_pthread_getspecific
_pthread_join
_pthread_key_create
_pthread_key_delete
_pthread_mach_thread_np
_pthread_mutex_destroy
_pthread_mutex_init
_pthread_mutex_lock
_pthread_mutex_trylock
_pthread_mutex_unlock
_pthread_mutexattr_destroy
_pthread_mutexattr_init
_pthread_mutexattr_settype
_pthread_self
_pthread_setcancelstate
_pthread_setname_np
_pthread_setschedparam
_pthread_setspecific
_putchar
_puts
_pwrite
_qsort
_raise
_rand
_random
_read
_readdir
_readlink
_realloc
_recv
_recvfrom
_regcomp
_regerror
_regexec
_regfree
_remainder
_removexattr
_rename
_rintf
_rmdir
_round
_roundf
_sched_get_priority_max
_sched_get_priority_min
_sched_yield
_sel_getUid
_sel_registerName
_select
_semaphore_create
_semaphore_destroy
_semaphore_signal
_semaphore_wait
_send
_sendto
_setenv
_setjmp
_setlocale
_setsockopt
_setxattr
_shutdown
_sigaction
_sigaltstack
_signal
_sin
_sinf
_sleep
_snprintf
_socket
_sprintf
_sqrt
_srandomdev
_sscanf
_stat
_statfs
_statvfs
_strcasecmp
_strchr
_strcmp
_strcpy
_strdup
_strerror
_strftime
_strlcpy
_strlen
_strncasecmp
_strncat
_strncmp
_strncpy
_strrchr
_strstr
_strtod
_strtod_l
_strtof
_strtol
_strtoll
_strtoul
_strtoull
_sysconf
_sysctl
_sysctlbyname
_system
_tan
_tanf
_task_get_exception_ports
_task_swap_exception_ports
_task_threads
_thread_get_exception_ports
_thread_get_state
_thread_resume
_thread_suspend
_thread_swap_exception_ports
_time
_truncate
_truncf
_uname
_unlink
_unsetenv
_usleep
_utimes
_uuid_generate
_vfprintf
_vm_allocate
_vm_deallocate
_vm_map
_vm_page_mask
_vm_page_size
_vm_read_overwrite
_vprintf
_vsnprintf
_vsprintf
_vswprintf
_wcscpy
_wcslen
_write
dyld_stub_binder

0.39.0 (for architecture arm64):
_ABAddressBookAddRecord
_ABAddressBookCopyArrayOfAllGroups
_ABAddressBookCopyArrayOfAllPeople
_ABAddressBookCopyLocalizedLabel
_ABAddressBookCopyPeopleWithName
_ABAddressBookCreateWithOptions
_ABAddressBookGetGroupWithRecordID
_ABAddressBookGetPersonWithRecordID
_ABAddressBookHasUnsavedChanges
_ABAddressBookRemoveRecord
_ABAddressBookSave
_ABGroupAddMember
_ABGroupCopyArrayOfAllMembers
_ABGroupCreate
_ABGroupRemoveMember
_ABMultiValueAddValueAndLabel
_ABMultiValueCopyLabelAtIndex
_ABMultiValueCopyValueAtIndex
_ABMultiValueCreateMutable
_ABMultiValueCreateMutableCopy
_ABMultiValueGetCount
_ABMultiValueGetIdentifierAtIndex
_ABMultiValueGetIndexForIdentifier
_ABMultiValueGetPropertyType
_ABMultiValueInsertValueAndLabelAtIndex
_ABMultiValueRemoveValueAndLabelAtIndex
_ABMultiValueReplaceLabelAtIndex
_ABMultiValueReplaceValueAtIndex
_ABPersonCopyImageData
_ABPersonCopyLocalizedPropertyName
_ABPersonCreate
_ABPersonGetCompositeNameFormat
_ABPersonGetTypeOfProperty
_ABPersonRemoveImageData
_ABPersonSetImageData
_ABRecordCopyCompositeName
_ABRecordCopyValue
_ABRecordGetRecordID
_ABRecordRemoveValue
_ABRecordSetValue
_AVAudioSessionCategoryAmbient
_AVAudioSessionCategoryAudioProcessing
_AVAudioSessionCategoryMultiRoute
_AVAudioSessionCategoryPlayAndRecord
_AVAudioSessionCategoryPlayback
_AVAudioSessionCategoryRecord
_AVAudioSessionCategorySoloAmbient
_AVAudioSessionInterruptionNotification
_AVAudioSessionInterruptionTypeKey
_AVAudioSessionMediaServicesWereResetNotification
_AVAudioSessionPortBuiltInReceiver
_AVAudioSessionRouteChangeNotification
_AVAudioSessionRouteChangePreviousRouteKey
_AVAudioSessionRouteChangeReasonKey
_AVCaptureSessionPreset1280x720
_AVCaptureSessionPreset1920x1080
_AVCaptureSessionPreset352x288
_AVCaptureSessionPreset640x480
_AVCaptureSessionPresetHigh
_AVLayerVideoGravityResizeAspect
_AVLayerVideoGravityResizeAspectFill
_AVMediaTypeAudio
_AVMediaTypeVideo
_AVPlayerItemDidPlayToEndTimeNotification
_AudioComponentFindNext
_AudioComponentInstanceDispose
_AudioComponentInstanceNew
_AudioFileClose
_AudioFileGetProperty
_AudioFileGetPropertyInfo
_AudioFileOpenWithCallbacks
_AudioFileReadPacketData
_AudioOutputUnitStart
_AudioOutputUnitStop
_AudioQueueAllocateBuffer
_AudioQueueAllocateBufferWithPacketDescriptions
_AudioQueueDispose
_AudioQueueEnqueueBuffer
_AudioQueueFlush
_AudioQueueNewOutput
_AudioQueueOfflineRender
_AudioQueueSetOfflineRenderFormat
_AudioQueueSetProperty
_AudioQueueStart
_AudioQueueStop
_AudioServicesPlaySystemSound
_AudioUnitGetProperty
_AudioUnitInitialize
_AudioUnitRender
_AudioUnitSetProperty
_AudioUnitUninitialize
_CBAdvertisementDataServiceDataKey
_CBCentralManagerOptionShowPowerAlertKey
_CBCentralManagerScanOptionAllowDuplicatesKey
_CBErrorDomain
_CCCryptorCreate
_CCCryptorCreateWithMode
_CCCryptorFinal
_CCCryptorGetOutputLength
_CCCryptorRelease
_CCCryptorUpdate
_CC_MD5
_CC_SHA1
_CC_SHA1_Final
_CC_SHA1_Init
_CC_SHA1_Update
_CC_SHA256
_CC_SHA512
_CFDataGetBytePtr
_CFDataGetLength
_CFEqual
_CFHash
_CFRelease
_CFRetain
_CFRunLoopGetCurrent
_CFStringAppendCharacters
_CFStringCreateWithCharacters
_CFStringGetCString
_CFStringGetCStringPtr
_CFStringGetCharactersPtr
_CFURLCreateStringByAddingPercentEscapes
_CFURLGetFileSystemRepresentation
_CFUUIDCreate
_CFUUIDCreateFromUUIDBytes
_CFUUIDCreateString
_CFUUIDGetUUIDBytes
_CGAffineTransformConcat
_CGAffineTransformIdentity
_CGAffineTransformInvert
_CGAffineTransformMakeRotation
_CGAffineTransformMakeScale
_CGAffineTransformMakeTranslation
_CGAffineTransformRotate
_CGAffineTransformScale
_CGBitmapContextCreate
_CGBitmapContextCreateImage
_CGColorCreate
_CGColorSpaceCreateDeviceGray
_CGColorSpaceCreateDeviceRGB
_CGColorSpaceRelease
_CGContextAddLineToPoint
_CGContextAddPath
_CGContextBeginPath
_CGContextClipToMask
_CGContextClosePath
_CGContextConcatCTM
_CGContextDrawImage
_CGContextDrawLinearGradient
_CGContextFillEllipseInRect
_CGContextFillPath
_CGContextFillRect
_CGContextMoveToPoint
_CGContextRelease
_CGContextRestoreGState
_CGContextRetain
_CGContextSaveGState
_CGContextScaleCTM
_CGContextSetBlendMode
_CGContextSetFillColorWithColor
_CGContextSetInterpolationQuality
_CGContextSetLineWidth
_CGContextSetShadowWithColor
_CGContextSetShouldAntialias
_CGContextSetStrokeColorWithColor
_CGContextStrokePath
_CGContextTranslateCTM
_CGDataProviderCreateWithFilename
_CGDataProviderRelease
_CGFontCreateWithDataProvider
_CGFontRelease
_CGGradientCreateWithColorComponents
_CGGradientRelease
_CGImageRelease
_CGPathAddRoundedRect
_CGPathCreateMutable
_CGPathRelease
_CGRectDivide
_CGRectEqualToRect
_CGRectGetHeight
_CGRectGetMaxX
_CGRectGetMaxY
_CGRectGetMidY
_CGRectGetMinX
_CGRectGetMinY
_CGRectGetWidth
_CGRectInset
_CGRectIntegral
_CGRectOffset
_CGRectUnion
_CGRectZero
_CMSampleBufferGetImageBuffer
_CMSampleBufferGetPresentationTimeStamp
_CMTimeCompare
_CMTimeGetSeconds
_CMTimeMake
_CMTimeMakeWithSeconds
_CMTimeRangeMake
_CTFontDescriptorCopyAttribute
_CTFontDescriptorCreateMatchingFontDescriptor
_CTFontDescriptorCreateWithAttributes
_CTFontManagerRegisterGraphicsFont
_CVMetalTextureCacheCreate
_CVMetalTextureCacheCreateTextureFromImage
_CVMetalTextureCacheFlush
_CVMetalTextureGetTexture
_CVMetalTextureIsFlipped
_CVOpenGLESTextureCacheCreate
_CVOpenGLESTextureCacheCreateTextureFromImage
_CVOpenGLESTextureCacheFlush
_CVOpenGLESTextureGetName
_CVOpenGLESTextureIsFlipped
_CVPixelBufferCreate
_CVPixelBufferGetBaseAddress
_CVPixelBufferGetBytesPerRow
_CVPixelBufferGetHeight
_CVPixelBufferGetWidth
_CVPixelBufferLockBaseAddress
_CVPixelBufferUnlockBaseAddress
_MPMovieMediaTypesAvailableNotification
_MPMovieNaturalSizeAvailableNotification
_MPMoviePlayerDidExitFullscreenNotification
_MPMoviePlayerPlaybackDidFinishNotification
_MPMovieSourceTypeAvailableNotification
_NDR_record
_NSBuddhistCalendar
_NSChineseCalendar
_NSClassFromString
_NSDefaultRunLoopMode
_NSDeletedObjectsKey
_NSFilePosixPermissions
_NSFileSize
_NSFontAttributeName
_NSForegroundColorAttributeName
_NSFoundationVersionNumber
_NSGenericException
_NSGetUncaughtExceptionHandler
_NSGregorianCalendar
_NSHTTPCookieExpires
_NSHebrewCalendar
_NSISO8601Calendar
_NSInMemoryStoreType
_NSIndianCalendar
_NSInsertedObjectsKey
_NSInternalInconsistencyException
_NSInvalidArgumentException
_NSIslamicCalendar
_NSIslamicCivilCalendar
_NSJapaneseCalendar
_NSKeyValueChangeNewKey
_NSLocaleCountryCode
_NSLocaleCurrencyCode
_NSLocalizedDescriptionKey
_NSLocalizedFailureReasonErrorKey
_NSLog
_NSLogv
_NSMachErrorDomain
_NSManagedObjectContextDidSaveNotification
_NSPOSIXErrorDomain
_NSPersianCalendar
_NSRepublicOfChinaCalendar
_NSRunLoopCommonModes
_NSSQLiteStoreType
_NSSearchPathForDirectoriesInDomains
_NSSelectorFromString
_NSSetUncaughtExceptionHandler
_NSStreamFileCurrentOffsetKey
_NSStringFromClass
_NSStringFromSelector
_NSTemporaryDirectory
_NSURLAuthenticationMethodServerTrust
_NSURLContentModificationDateKey
_NSURLErrorDomain
_NSURLErrorFailingURLStringErrorKey
_NSURLFileSizeKey
_NSURLSessionDownloadTaskResumeData
_NSURLSessionTransferSizeUnknown
_NSUnderlyingErrorKey
_NSUpdatedObjectsKey
_NSUserDefaultsDidChangeNotification
_NXGetLocalArchInfo
_OBJC_CLASS_$_ADBannerView
_OBJC_CLASS_$_ADInterstitialAd
_OBJC_CLASS_$_ASIdentifierManager
_OBJC_CLASS_$_AVAssetReader
_OBJC_CLASS_$_AVAssetReaderTrackOutput
_OBJC_CLASS_$_AVAudioSession
_OBJC_CLASS_$_AVCaptureDevice
_OBJC_CLASS_$_AVCaptureDeviceInput
_OBJC_CLASS_$_AVCaptureSession
_OBJC_CLASS_$_AVCaptureVideoDataOutput
_OBJC_CLASS_$_AVMutableAudioMix
_OBJC_CLASS_$_AVMutableAudioMixInputParameters
_OBJC_CLASS_$_AVPlayer
_OBJC_CLASS_$_AVPlayerItem
_OBJC_CLASS_$_AVPlayerLayer
_OBJC_CLASS_$_AVURLAsset
_OBJC_CLASS_$_CADisplayLink
_OBJC_CLASS_$_CAEAGLLayer
_OBJC_CLASS_$_CATransaction
_OBJC_CLASS_$_CBCentralManager
_OBJC_CLASS_$_CBUUID
_OBJC_CLASS_$_CLGeocoder
_OBJC_CLASS_$_CLLocation
_OBJC_CLASS_$_CLLocationManager
_OBJC_CLASS_$_CMMotionActivityManager
_OBJC_CLASS_$_CMMotionManager
_OBJC_CLASS_$_CTTelephonyNetworkInfo
_OBJC_CLASS_$_EAGLContext
_OBJC_CLASS_$_MPMoviePlayerController
_OBJC_CLASS_$_NSArray
_OBJC_CLASS_$_NSAssertionHandler
_OBJC_CLASS_$_NSAttributeDescription
_OBJC_CLASS_$_NSAutoreleasePool
_OBJC_CLASS_$_NSBlockOperation
_OBJC_CLASS_$_NSBundle
_OBJC_CLASS_$_NSCachedURLResponse
_OBJC_CLASS_$_NSCalendar
_OBJC_CLASS_$_NSCharacterSet
_OBJC_CLASS_$_NSCompoundPredicate
_OBJC_CLASS_$_NSCondition
_OBJC_CLASS_$_NSData
_OBJC_CLASS_$_NSDate
_OBJC_CLASS_$_NSDateFormatter
_OBJC_CLASS_$_NSDictionary
_OBJC_CLASS_$_NSEntityDescription
_OBJC_CLASS_$_NSEnumerator
_OBJC_CLASS_$_NSError
_OBJC_CLASS_$_NSException
_OBJC_CLASS_$_NSFetchRequest
_OBJC_CLASS_$_NSFileHandle
_OBJC_CLASS_$_NSFileManager
_OBJC_CLASS_$_NSHTTPCookieStorage
_OBJC_CLASS_$_NSHTTPURLResponse
_OBJC_CLASS_$_NSIndexSet
_OBJC_CLASS_$_NSInputStream
_OBJC_CLASS_$_NSInvocation
_OBJC_CLASS_$_NSJSONSerialization
_OBJC_CLASS_$_NSKeyedArchiver
_OBJC_CLASS_$_NSKeyedUnarchiver
_OBJC_CLASS_$_NSLayoutConstraint
_OBJC_CLASS_$_NSLocale
_OBJC_CLASS_$_NSManagedObject
_OBJC_CLASS_$_NSManagedObjectContext
_OBJC_CLASS_$_NSManagedObjectModel
_OBJC_CLASS_$_NSMapTable
_OBJC_CLASS_$_NSMutableArray
_OBJC_CLASS_$_NSMutableData
_OBJC_CLASS_$_NSMutableDictionary
_OBJC_CLASS_$_NSMutableSet
_OBJC_CLASS_$_NSMutableString
_OBJC_CLASS_$_NSMutableURLRequest
_OBJC_CLASS_$_NSNotificationCenter
_OBJC_CLASS_$_NSNull
_OBJC_CLASS_$_NSNumber
_OBJC_CLASS_$_NSNumberFormatter
_OBJC_CLASS_$_NSObject
_OBJC_CLASS_$_NSOperationQueue
_OBJC_CLASS_$_NSOutputStream
_OBJC_CLASS_$_NSPersistentStoreCoordinator
_OBJC_CLASS_$_NSPointerArray
_OBJC_CLASS_$_NSPredicate
_OBJC_CLASS_$_NSProcessInfo
_OBJC_CLASS_$_NSPropertyListSerialization
_OBJC_CLASS_$_NSRegularExpression
_OBJC_CLASS_$_NSRunLoop
_OBJC_CLASS_$_NSScanner
_OBJC_CLASS_$_NSSet
_OBJC_CLASS_$_NSSortDescriptor
_OBJC_CLASS_$_NSString
_OBJC_CLASS_$_NSThread
_OBJC_CLASS_$_NSTimeZone
_OBJC_CLASS_$_NSTimer
_OBJC_CLASS_$_NSURL
_OBJC_CLASS_$_NSURLComponents
_OBJC_CLASS_$_NSURLConnection
_OBJC_CLASS_$_NSURLCredential
_OBJC_CLASS_$_NSURLProtocol
_OBJC_CLASS_$_NSURLRequest
_OBJC_CLASS_$_NSURLSession
_OBJC_CLASS_$_NSURLSessionConfiguration
_OBJC_CLASS_$_NSUUID
_OBJC_CLASS_$_NSUserDefaults
_OBJC_CLASS_$_NSValue
_OBJC_CLASS_$_SFSafariViewController
_OBJC_CLASS_$_SKMutablePayment
_OBJC_CLASS_$_SKPaymentQueue
_OBJC_CLASS_$_SKProductsRequest
_OBJC_CLASS_$_SKStoreProductViewController
_OBJC_CLASS_$_SSReadingList
_OBJC_CLASS_$_UIActivityIndicatorView
_OBJC_CLASS_$_UIAlertAction
_OBJC_CLASS_$_UIAlertController
_OBJC_CLASS_$_UIApplication
_OBJC_CLASS_$_UIBarButtonItem
_OBJC_CLASS_$_UIButton
_OBJC_CLASS_$_UIColor
_OBJC_CLASS_$_UIControl
_OBJC_CLASS_$_UIDevice
_OBJC_CLASS_$_UIFont
_OBJC_CLASS_$_UIImage
_OBJC_CLASS_$_UIImageView
_OBJC_CLASS_$_UILabel
_OBJC_CLASS_$_UILocalNotification
_OBJC_CLASS_$_UIMutableUserNotificationAction
_OBJC_CLASS_$_UIMutableUserNotificationCategory
_OBJC_CLASS_$_UINavigationController
_OBJC_CLASS_$_UIPasteboard
_OBJC_CLASS_$_UIScreen
_OBJC_CLASS_$_UISegmentedControl
_OBJC_CLASS_$_UITextField
_OBJC_CLASS_$_UITextView
_OBJC_CLASS_$_UIToolbar
_OBJC_CLASS_$_UIUserNotificationSettings
_OBJC_CLASS_$_UIView
_OBJC_CLASS_$_UIViewController
_OBJC_CLASS_$_UIWebView
_OBJC_CLASS_$_UIWindow
_OBJC_CLASS_$_WKWebView
_OBJC_EHTYPE_$_NSException
_OBJC_EHTYPE_id
_OBJC_METACLASS_$_NSEnumerator
_OBJC_METACLASS_$_NSHTTPCookieStorage
_OBJC_METACLASS_$_NSInputStream
_OBJC_METACLASS_$_NSManagedObject
_OBJC_METACLASS_$_NSObject
_OBJC_METACLASS_$_NSURLProtocol
_OBJC_METACLASS_$_UIActivityIndicatorView
_OBJC_METACLASS_$_UIControl
_OBJC_METACLASS_$_UIImageView
_OBJC_METACLASS_$_UILabel
_OBJC_METACLASS_$_UINavigationController
_OBJC_METACLASS_$_UIView
_OBJC_METACLASS_$_UIViewController
_OSAtomicAdd32Barrier
_OSAtomicCompareAndSwap32Barrier
_OSAtomicCompareAndSwap64
_OSAtomicCompareAndSwap64Barrier
_OSAtomicCompareAndSwapPtrBarrier
_OSMemoryBarrier
_OSSpinLockLock
_OSSpinLockUnlock
_SCNetworkReachabilityCreateWithAddress
_SCNetworkReachabilityCreateWithName
_SCNetworkReachabilityGetFlags
_SCNetworkReachabilityScheduleWithRunLoop
_SCNetworkReachabilitySetCallback
_SCNetworkReachabilityUnscheduleFromRunLoop
_SKStoreProductParameterITunesItemIdentifier
_SecCertificateCopyData
_SecItemAdd
_SecItemCopyMatching
_SecItemDelete
_SecKeyGetBlockSize
_SecKeyRawSign
_SecKeyRawVerify
_SecRandomCopyBytes
_SecTrustEvaluate
_SecTrustGetCertificateAtIndex
_SecTrustGetCertificateCount
_UIAccessibilityTraitAllowsDirectInteraction
_UIAccessibilityTraitButton
_UIApplicationDidBecomeActiveNotification
_UIApplicationDidEnterBackgroundNotification
_UIApplicationDidFinishLaunchingNotification
_UIApplicationDidReceiveMemoryWarningNotification
_UIApplicationLaunchOptionsLocalNotificationKey
_UIApplicationLaunchOptionsRemoteNotificationKey
_UIApplicationMain
_UIApplicationOpenURLOptionsAnnotationKey
_UIApplicationOpenURLOptionsSourceApplicationKey
_UIApplicationSignificantTimeChangeNotification
_UIApplicationWillChangeStatusBarFrameNotification
_UIApplicationWillChangeStatusBarOrientationNotification
_UIApplicationWillEnterForegroundNotification
_UIApplicationWillResignActiveNotification
_UIApplicationWillTerminateNotification
_UIBackgroundTaskInvalid
_UIGraphicsBeginImageContext
_UIGraphicsBeginImageContextWithOptions
_UIGraphicsEndImageContext
_UIGraphicsGetCurrentContext
_UIGraphicsGetImageFromCurrentImageContext
_UIImagePNGRepresentation
_UIImageWriteToSavedPhotosAlbum
_UIKeyboardDidChangeFrameNotification
_UIKeyboardDidShowNotification
_UIKeyboardFrameEndUserInfoKey
_UIKeyboardWillHideNotification
_UILocalNotificationDefaultSoundName
_UIScreenDidConnectNotification
_UIScreenDidDisconnectNotification
_UITextFieldTextDidEndEditingNotification
_UITransitionContextFromViewControllerKey
_UITransitionContextToViewControllerKey
__Block_object_assign
__Block_object_dispose
__DefaultRuneLocale
__FE_DFL_ENV
__NSConcreteGlobalBlock
__NSConcreteStackBlock
__NSGetExecutablePath
__Unwind_Resume
__Z25getPxVehicleTireDataMTypePKN5physx17PxVehicleTireDataE
__Z25getPxVehicleWheelDataMMOIPKN5physx18PxVehicleWheelDataE
__Z25setPxVehicleTireDataMTypePN5physx17PxVehicleTireDataEj
__Z25setPxVehicleWheelDataMMOIPN5physx18PxVehicleWheelDataEf
__Z26getPxVehicleEngineDataMMOIPKN5physx19PxVehicleEngineDataE
__Z26getPxVehicleWheelDataMMassPKN5physx18PxVehicleWheelDataE
__Z26setPxVehicleEngineDataMMOIPN5physx19PxVehicleEngineDataEf
__Z26setPxVehicleWheelDataMMassPN5physx18PxVehicleWheelDataEf
__Z27getPxVehicleWheelDataMWidthPKN5physx18PxVehicleWheelDataE
__Z27setPxVehicleWheelDataMWidthPN5physx18PxVehicleWheelDataEf
__Z28getPxVehicleWheelDataMRadiusPKN5physx18PxVehicleWheelDataE
__Z28setPxVehicleWheelDataMRadiusPN5physx18PxVehicleWheelDataEf
__Z30getPxVehicleDriveMDriveDynDataPKN5physx14PxVehicleDriveE
__Z30getPxVehicleGearsDataMNbRatiosPKN5physx18PxVehicleGearsDataE
__Z30getPxVehicleTireDataMLatStiffXPKN5physx17PxVehicleTireDataE
__Z30getPxVehicleTireDataMLatStiffYPKN5physx17PxVehicleTireDataE
__Z30getPxVehicleWheelDataMMaxSteerPKN5physx18PxVehicleWheelDataE
__Z30getPxVehicleWheelDataMToeAnglePKN5physx18PxVehicleWheelDataE
__Z30setPxVehicleDriveMDriveDynDataPN5physx14PxVehicleDriveENS_21PxVehicleDriveDynDataE
__Z30setPxVehicleGearsDataMNbRatiosPN5physx18PxVehicleGearsDataEj
__Z30setPxVehicleTireDataMLatStiffXPN5physx17PxVehicleTireDataEf
__Z30setPxVehicleTireDataMLatStiffYPN5physx17PxVehicleTireDataEf
__Z30setPxVehicleWheelDataMMaxSteerPN5physx18PxVehicleWheelDataEf
__Z30setPxVehicleWheelDataMToeAnglePN5physx18PxVehicleWheelDataEf
__Z31getPxVehicleClutchDataMStrengthPKN5physx19PxVehicleClutchDataE
__Z31getPxVehicleEngineDataMMaxOmegaPKN5physx19PxVehicleEngineDataE
__Z31setPxVehicleClutchDataMStrengthPN5physx19PxVehicleClutchDataEf
__Z31setPxVehicleEngineDataMMaxOmegaPN5physx19PxVehicleEngineDataEf
__Z32getPxVehicleDrive4WMDriveSimDataPKN5physx16PxVehicleDrive4WE
__Z32getPxVehicleDriveNWMDriveSimDataPKN5physx16PxVehicleDriveNWE
__Z32getPxVehicleGearsDataMFinalRatioPKN5physx18PxVehicleGearsDataE
__Z32getPxVehicleGearsDataMSwitchTimePKN5physx18PxVehicleGearsDataE
__Z32getPxVehicleWheelsMWheelsDynDataPKN5physx15PxVehicleWheelsE
__Z32getPxVehicleWheelsMWheelsSimDataPKN5physx15PxVehicleWheelsE
__Z32setPxVehicleDrive4WMDriveSimDataPN5physx16PxVehicleDrive4WENS_23PxVehicleDriveSimData4WE
__Z32setPxVehicleDriveNWMDriveSimDataPN5physx16PxVehicleDriveNWENS_23PxVehicleDriveSimDataNWE
__Z32setPxVehicleGearsDataMFinalRatioPN5physx18PxVehicleGearsDataEf
__Z32setPxVehicleGearsDataMSwitchTimePN5physx18PxVehicleGearsDataEf
__Z32setPxVehicleWheelsMWheelsDynDataPN5physx15PxVehicleWheelsENS_22PxVehicleWheelsDynDataE
__Z32setPxVehicleWheelsMWheelsSimDataPN5physx15PxVehicleWheelsENS_22PxVehicleWheelsSimDataE
__Z33getPxVehicleEngineDataMPeakTorquePKN5physx19PxVehicleEngineDataE
__Z33getPxVehicleWheelDataMDampingRatePKN5physx18PxVehicleWheelDataE
__Z33setPxVehicleEngineDataMPeakTorquePN5physx19PxVehicleEngineDataEf
__Z33setPxVehicleWheelDataMDampingRatePN5physx18PxVehicleWheelDataEf
__Z34getPxVehicleDriveTankMDriveSimDataPKN5physx18PxVehicleDriveTankE
__Z34setPxVehicleDriveTankMDriveSimDataPN5physx18PxVehicleDriveTankENS_21PxVehicleDriveSimDataE
__Z35getPxVehicleClutchDataMAccuracyModePKN5physx19PxVehicleClutchDataE
__Z35getPxVehicleDifferential4WDataMTypePKN5physx27PxVehicleDifferential4WDataE
__Z35getPxVehicleDriveDynDataMTargetGearPKN5physx21PxVehicleDriveDynDataE
__Z35getPxVehicleSuspensionDataMMaxDroopPKN5physx23PxVehicleSuspensionDataE
__Z35plcrash_async_dwarf_expression_evalIjiE15plcrash_error_tP21plcrash_async_mobjectjPK26plcrash_async_thread_statePK23plcrash_async_byteordermlmPT_mSA_
__Z35plcrash_async_dwarf_expression_evalIyxE15plcrash_error_tP21plcrash_async_mobjectjPK26plcrash_async_thread_statePK23plcrash_async_byteordermlmPT_mSA_
__Z35setPxVehicleClutchDataMAccuracyModePN5physx19PxVehicleClutchDataENS_27PxVehicleClutchAccuracyMode4EnumE
__Z35setPxVehicleDifferential4WDataMTypePN5physx27PxVehicleDifferential4WDataENS0_4EnumE
__Z35setPxVehicleDriveDynDataMTargetGearPN5physx21PxVehicleDriveDynDataEj
__Z35setPxVehicleSuspensionDataMMaxDroopPN5physx23PxVehicleSuspensionDataEf
__Z36getPxVehicleDriveDynDataMCurrentGearPKN5physx21PxVehicleDriveDynDataE
__Z36getPxVehicleDriveDynDataMEnginespeedPKN5physx21PxVehicleDriveDynDataE
__Z36getPxVehicleWheelDataMMaxBrakeTorquePKN5physx18PxVehicleWheelDataE
__Z36setPxVehicleDriveDynDataMCurrentGearPN5physx21PxVehicleDriveDynDataEj
__Z36setPxVehicleDriveDynDataMEnginespeedPN5physx21PxVehicleDriveDynDataEf
__Z36setPxVehicleWheelDataMMaxBrakeTorquePN5physx18PxVehicleWheelDataEf
__Z37getPxVehicleDriveDynDataMUseAutoGearsPKN5physx21PxVehicleDriveDynDataE
__Z37getPxVehicleSuspensionDataMSprungMassPKN5physx23PxVehicleSuspensionDataE
__Z37setPxVehicleDriveDynDataMUseAutoGearsPN5physx21PxVehicleDriveDynDataEb
__Z37setPxVehicleSuspensionDataMSprungMassPN5physx23PxVehicleSuspensionDataEf
__Z38getPxVehicleDriveDynDataMGearUpPressedPKN5physx21PxVehicleDriveDynDataE
__Z38setPxVehicleDriveDynDataMGearUpPressedPN5physx21PxVehicleDriveDynDataEb
__Z39getPxVehicleDifferential4WDataMRearBiasPKN5physx27PxVehicleDifferential4WDataE
__Z39getPxVehicleDriveDynDataMGearSwitchTimePKN5physx21PxVehicleDriveDynDataE
__Z39getPxVehicleSuspensionDataMCamberAtRestPKN5physx23PxVehicleSuspensionDataE
__Z39setPxVehicleDifferential4WDataMRearBiasPN5physx27PxVehicleDifferential4WDataEf
__Z39setPxVehicleDriveDynDataMGearSwitchTimePN5physx21PxVehicleDriveDynDataEf
__Z39setPxVehicleSuspensionDataMCamberAtRestPN5physx23PxVehicleSuspensionDataEf
__Z40getPxVehicleDifferential4WDataMFrontBiasPKN5physx27PxVehicleDifferential4WDataE
__Z40getPxVehicleDriveDynDataMGearDownPressedPKN5physx21PxVehicleDriveDynDataE
__Z40getPxVehicleWheelDataMMaxHandBrakeTorquePKN5physx18PxVehicleWheelDataE
__Z40setPxVehicleDifferential4WDataMFrontBiasPN5physx27PxVehicleDifferential4WDataEf
__Z40setPxVehicleDriveDynDataMGearDownPressedPN5physx21PxVehicleDriveDynDataEb
__Z40setPxVehicleWheelDataMMaxHandBrakeTorquePN5physx18PxVehicleWheelDataEf
__Z41getPxVehicleClutchDataMEstimateIterationsPKN5physx19PxVehicleClutchDataE
__Z41getPxVehicleDifferential4WDataMCentreBiasPKN5physx27PxVehicleDifferential4WDataE
__Z41getPxVehicleSuspensionDataMMaxCompressionPKN5physx23PxVehicleSuspensionDataE
__Z41getPxVehicleSuspensionDataMSpringStrengthPKN5physx23PxVehicleSuspensionDataE
__Z41setPxVehicleClutchDataMEstimateIterationsPN5physx19PxVehicleClutchDataEj
__Z41setPxVehicleDifferential4WDataMCentreBiasPN5physx27PxVehicleDifferential4WDataEf
__Z41setPxVehicleSuspensionDataMMaxCompressionPN5physx23PxVehicleSuspensionDataEf
__Z41setPxVehicleSuspensionDataMSpringStrengthPN5physx23PxVehicleSuspensionDataEf
__Z42getPxVehicleAckermannGeometryDataMAccuracyPKN5physx30PxVehicleAckermannGeometryDataE
__Z42getPxVehicleDriveDynDataMAutoBoxSwitchTimePKN5physx21PxVehicleDriveDynDataE
__Z42setPxVehicleAckermannGeometryDataMAccuracyPN5physx30PxVehicleAckermannGeometryDataEf
__Z42setPxVehicleDriveDynDataMAutoBoxSwitchTimePN5physx21PxVehicleDriveDynDataEf
__Z43getPxVehicleAckermannGeometryDataMRearWidthPKN5physx30PxVehicleAckermannGeometryDataE
__Z43getPxVehicleSuspensionDataMCamberAtMaxDroopPKN5physx23PxVehicleSuspensionDataE
__Z43getPxVehicleSuspensionDataMSpringDamperRatePKN5physx23PxVehicleSuspensionDataE
__Z43setPxVehicleAckermannGeometryDataMRearWidthPN5physx30PxVehicleAckermannGeometryDataEf
__Z43setPxVehicleSuspensionDataMCamberAtMaxDroopPN5physx23PxVehicleSuspensionDataEf
__Z43setPxVehicleSuspensionDataMSpringDamperRatePN5physx23PxVehicleSuspensionDataEf
__Z44getPxVehicleAckermannGeometryDataMFrontWidthPKN5physx30PxVehicleAckermannGeometryDataE
__Z44setPxVehicleAckermannGeometryDataMFrontWidthPN5physx30PxVehicleAckermannGeometryDataEf
__Z45getPxVehicleDifferential4WDataMFrontRearSplitPKN5physx27PxVehicleDifferential4WDataE
__Z45setPxVehicleDifferential4WDataMFrontRearSplitPN5physx27PxVehicleDifferential4WDataEf
__Z46getPxVehicleEngineDataMDampingRateFullThrottlePKN5physx19PxVehicleEngineDataE
__Z46setPxVehicleEngineDataMDampingRateFullThrottlePN5physx19PxVehicleEngineDataEf
__Z48getPxVehicleAckermannGeometryDataMAxleSeparationPKN5physx30PxVehicleAckermannGeometryDataE
__Z48getPxVehicleTireLoadFilterDataMMaxNormalisedLoadPKN5physx27PxVehicleTireLoadFilterDataE
__Z48getPxVehicleTireLoadFilterDataMMinNormalisedLoadPKN5physx27PxVehicleTireLoadFilterDataE
__Z48setPxVehicleAckermannGeometryDataMAxleSeparationPN5physx30PxVehicleAckermannGeometryDataEf
__Z48setPxVehicleTireLoadFilterDataMMaxNormalisedLoadPN5physx27PxVehicleTireLoadFilterDataEf
__Z48setPxVehicleTireLoadFilterDataMMinNormalisedLoadPN5physx27PxVehicleTireLoadFilterDataEf
__Z49getPxVehicleDifferential4WDataMRearLeftRightSplitPKN5physx27PxVehicleDifferential4WDataE
__Z49getPxVehicleSuspensionDataMCamberAtMaxCompressionPKN5physx23PxVehicleSuspensionDataE
__Z49setPxVehicleDifferential4WDataMRearLeftRightSplitPN5physx27PxVehicleDifferential4WDataEf
__Z49setPxVehicleSuspensionDataMCamberAtMaxCompressionPN5physx23PxVehicleSuspensionDataEf
__Z50getPxVehicleDifferential4WDataMFrontLeftRightSplitPKN5physx27PxVehicleDifferential4WDataE
__Z50getPxVehicleTireDataMCamberStiffnessPerUnitGravityPKN5physx17PxVehicleTireDataE
__Z50setPxVehicleDifferential4WDataMFrontLeftRightSplitPN5physx27PxVehicleDifferential4WDataEf
__Z50setPxVehicleTireDataMCamberStiffnessPerUnitGravityPN5physx17PxVehicleTireDataEf
__Z56getPxVehicleTireDataMLongitudinalStiffnessPerUnitGravityPKN5physx17PxVehicleTireDataE
__Z56getPxVehicleTireLoadFilterDataMMaxFilteredNormalisedLoadPKN5physx27PxVehicleTireLoadFilterDataE
__Z56getPxVehicleTireLoadFilterDataMMinFilteredNormalisedLoadPKN5physx27PxVehicleTireLoadFilterDataE
__Z56setPxVehicleTireDataMLongitudinalStiffnessPerUnitGravityPN5physx17PxVehicleTireDataEf
__Z56setPxVehicleTireLoadFilterDataMMaxFilteredNormalisedLoadPN5physx27PxVehicleTireLoadFilterDataEf
__Z56setPxVehicleTireLoadFilterDataMMinFilteredNormalisedLoadPN5physx27PxVehicleTireLoadFilterDataEf
__Z59getPxVehicleEngineDataMDampingRateZeroThrottleClutchEngagedPKN5physx19PxVehicleEngineDataE
__Z59setPxVehicleEngineDataMDampingRateZeroThrottleClutchEngagedPN5physx19PxVehicleEngineDataEf
__Z62getPxVehicleEngineDataMDampingRateZeroThrottleClutchDisengagedPKN5physx19PxVehicleEngineDataE
__Z62setPxVehicleEngineDataMDampingRateZeroThrottleClutchDisengagedPN5physx19PxVehicleEngineDataEf
__ZGVN5physx5cloth11SwCollisionI6Simd4fE14sSkeletonWidthE
__ZN5physx18GetTorqueCurvePairEPKNS_19PxVehicleEngineDataEj
__ZN5physx18SetTorqueCurvePairEPNS_19PxVehicleEngineDataEjf
__ZN5physx20GetNbTorqueCurvePairEPKNS_19PxVehicleEngineDataE
__ZN5physx23GetMFrictionVsSlipGraphEPKNS_17PxVehicleTireDataEjj
__ZN5physx23PxVehicleRepXSerializerINS_16PxVehicleDrive4WEE12fileToObjectERNS_9XmlReaderERNS_18XmlMemoryAllocatorERNS_23PxRepXInstantiationArgsEPNS_12PxCollectionE
__ZN5physx23PxVehicleRepXSerializerINS_16PxVehicleDrive4WEE14allocateObjectERNS_23PxRepXInstantiationArgsE
__ZN5physx23PxVehicleRepXSerializerINS_16PxVehicleDrive4WEE16objectToFileImplEPKS1_PNS_12PxCollectionERNS_9XmlWriterERNS_12MemoryBufferERNS_23PxRepXInstantiationArgsE
__ZN5physx23PxVehicleRepXSerializerINS_16PxVehicleDriveNWEE12fileToObjectERNS_9XmlReaderERNS_18XmlMemoryAllocatorERNS_23PxRepXInstantiationArgsEPNS_12PxCollectionE
__ZN5physx23PxVehicleRepXSerializerINS_16PxVehicleDriveNWEE14allocateObjectERNS_23PxRepXInstantiationArgsE
__ZN5physx23PxVehicleRepXSerializerINS_16PxVehicleDriveNWEE16objectToFileImplEPKS1_PNS_12PxCollectionERNS_9XmlWriterERNS_12MemoryBufferERNS_23PxRepXInstantiationArgsE
__ZN5physx23PxVehicleRepXSerializerINS_16PxVehicleNoDriveEE12fileToObjectERNS_9XmlReaderERNS_18XmlMemoryAllocatorERNS_23PxRepXInstantiationArgsEPNS_12PxCollectionE
__ZN5physx23PxVehicleRepXSerializerINS_16PxVehicleNoDriveEE14allocateObjectERNS_23PxRepXInstantiationArgsE
__ZN5physx23PxVehicleRepXSerializerINS_16PxVehicleNoDriveEE16objectToFileImplEPKS1_PNS_12PxCollectionERNS_9XmlWriterERNS_12MemoryBufferERNS_23PxRepXInstantiationArgsE
__ZN5physx23PxVehicleRepXSerializerINS_18PxVehicleDriveTankEE12fileToObjectERNS_9XmlReaderERNS_18XmlMemoryAllocatorERNS_23PxRepXInstantiationArgsEPNS_12PxCollectionE
__ZN5physx23PxVehicleRepXSerializerINS_18PxVehicleDriveTankEE14allocateObjectERNS_23PxRepXInstantiationArgsE
__ZN5physx23PxVehicleRepXSerializerINS_18PxVehicleDriveTankEE16objectToFileImplEPKS1_PNS_12PxCollectionERNS_9XmlWriterERNS_12MemoryBufferERNS_23PxRepXInstantiationArgsE
__ZN5physx23SetMFrictionVsSlipGraphEPNS_17PxVehicleTireDataEjjf
__ZN5physx25PxVehicleConstraintShader19visualiseConstraintERNS_22PxConstraintVisualizerEPKvRKNS_11PxTransformES7_j
__ZN5physx25PxVehicleConstraintShader36vehicleSuspLimitConstraintSolverPrepEPNS_14Px1DConstraintERNS_6PxVec3EjRNS_24PxConstraintInvMassScaleEPKvRKNS_11PxTransformESB_
__ZN5physx2Gu15MeshRayCollider7collideILi0ELi1EEEvRKNS_6PxVec3ES5_fbRKNS0_17RTreeMidphaseDataERNS0_15MeshHitCallbackINS_12PxRaycastHitEEEPS4_
__ZN5physx2Gu15MeshRayCollider7collideILi1ELi0EEEvRKNS_6PxVec3ES5_fbRKNS0_17RTreeMidphaseDataERNS0_15MeshHitCallbackINS_12PxRaycastHitEEEPS4_
__ZN5physx2Gu15MeshRayCollider7collideILi1ELi1EEEvRKNS_6PxVec3ES5_fbRKNS0_17RTreeMidphaseDataERNS0_15MeshHitCallbackINS_12PxRaycastHitEEEPS4_
__ZN5physx5cloth11SwCollisionI6Simd4fE14sSkeletonWidthE
__ZN5physx5cloth11SwCollisionI6Simd4fE15collideConvexesEPKS2_PS2_RNS3_18ImpulseAccumulatorE
__ZN5physx5cloth11SwCollisionI6Simd4fE15collideConvexesERKNS0_14IterationStateIS2_EE
__ZN5physx5cloth11SwCollisionI6Simd4fE16collideParticlesEv
__ZN5physx5cloth11SwCollisionI6Simd4fE16collideTrianglesEPKNS0_12TriangleDataEPS2_RNS3_18ImpulseAccumulatorE
__ZN5physx5cloth11SwCollisionI6Simd4fE16collideTrianglesERKNS0_14IterationStateIS2_EE
__ZN5physx5cloth11SwCollisionI6Simd4fE17buildAccelerationEv
__ZN5physx5cloth11SwCollisionI6Simd4fE17mergeAccelerationEPj
__ZN5physx5cloth11SwCollisionI6Simd4fE23buildSphereAccelerationEPKNS0_10SphereDataE
__ZN5physx5cloth11SwCollisionI6Simd4fE23collideVirtualParticlesEv
__ZN5physx5cloth11SwCollisionI6Simd4fE23estimateTemporaryMemoryERKNS0_7SwClothE
__ZN5physx5cloth11SwCollisionI6Simd4fE24estimatePersistentMemoryERKNS0_7SwClothE
__ZN5physx5cloth11SwCollisionI6Simd4fE26collideContinuousParticlesEv
__ZN5physx5cloth11SwCollisionI6Simd4fEC1ERNS0_11SwClothDataER14StackAllocatorILm16EEPNS_13PxProfileZoneE
__ZN5physx5cloth11SwCollisionI6Simd4fEC2ERNS0_11SwClothDataER14StackAllocatorILm16EEPNS_13PxProfileZoneE
__ZN5physx5cloth11SwCollisionI6Simd4fED1Ev
__ZN5physx5cloth11SwCollisionI6Simd4fED2Ev
__ZN5physx5cloth11SwCollisionI6Simd4fEclERKNS0_14IterationStateIS2_EE
__ZN5physx5cloth14SwSolverKernelI6Simd4fE11solveFabricEv
__ZN5physx5cloth14SwSolverKernelI6Simd4fE12iterateClothEv
__ZN5physx5cloth14SwSolverKernelI6Simd4fE15constrainMotionEv
__ZN5physx5cloth14SwSolverKernelI6Simd4fE19constrainSeparationEv
__ZN5physx5cloth14SwSolverKernelI6Simd4fE23estimateTemporaryMemoryERKNS0_7SwClothE
__ZN5physx5cloth14SwSolverKernelI6Simd4fEC1ERKNS0_7SwClothERNS0_11SwClothDataER14StackAllocatorILm16EERNS0_21IterationStateFactoryEPNS_13PxProfileZoneE
__ZN5physx5cloth14SwSolverKernelI6Simd4fEC2ERKNS0_7SwClothERNS0_11SwClothDataER14StackAllocatorILm16EERNS0_21IterationStateFactoryEPNS_13PxProfileZoneE
__ZN5physx5cloth14SwSolverKernelI6Simd4fEclEv
__ZN5physx5cloth15SwSelfCollisionI6Simd4fE23estimateTemporaryMemoryERKNS0_7SwClothE
__ZN5physx5cloth15SwSelfCollisionI6Simd4fEC1ERNS0_11SwClothDataER14StackAllocatorILm16EE
__ZN5physx5cloth15SwSelfCollisionI6Simd4fED1Ev
__ZN5physx5cloth15SwSelfCollisionI6Simd4fEclEv
__ZN5physx5cloth16SwInterCollisionI6Simd4fE16collideParticlesEPKjjS5_jj
__ZN5physx5cloth16SwInterCollisionI6Simd4fE23estimateTemporaryMemoryEPNS0_20SwInterCollisionDataEj
__ZN5physx5cloth16SwInterCollisionI6Simd4fEC1EPKNS0_20SwInterCollisionDataEjffjPFbPvS7_ER14StackAllocatorILm16EEPNS_13PxProfileZoneE
__ZN5physx5cloth16SwInterCollisionI6Simd4fED1Ev
__ZN5physx5cloth16SwInterCollisionI6Simd4fEclEv
__ZN7plcrash5async15dwarf_cfa_stateIjiE10push_stateEv
__ZN7plcrash5async15dwarf_cfa_stateIjiE11apply_stateEjPNS0_28plcrash_async_dwarf_cie_infoEPK26plcrash_async_thread_statePK23plcrash_async_byteorderPS5_
__ZN7plcrash5async15dwarf_cfa_stateIjiE12eval_programEP21plcrash_async_mobjectjjPNS0_28plcrash_async_dwarf_cie_infoEPNS0_16gnu_ehptr_readerIjEEPK23plcrash_async_byteordermlm
__ZN7plcrash5async15dwarf_cfa_stateIjiE12get_cfa_ruleEv
__ZN7plcrash5async15dwarf_cfa_stateIjiE12set_registerEjNS0_28plcrash_dwarf_cfa_reg_rule_tEj
__ZN7plcrash5async15dwarf_cfa_stateIjiE15remove_registerEj
__ZN7plcrash5async15dwarf_cfa_stateIjiE16set_cfa_registerEjj
__ZN7plcrash5async15dwarf_cfa_stateIjiE17get_register_ruleEjPNS0_28plcrash_dwarf_cfa_reg_rule_tEPj
__ZN7plcrash5async15dwarf_cfa_stateIjiE18set_cfa_expressionEmm
__ZN7plcrash5async15dwarf_cfa_stateIjiE23set_cfa_register_signedEji
__ZN7plcrash5async15dwarf_cfa_stateIjiE9pop_stateEv
__ZN7plcrash5async15dwarf_cfa_stateIjiEC1Ev
__ZN7plcrash5async15dwarf_cfa_stateIjiEC2Ev
__ZN7plcrash5async15dwarf_cfa_stateIyxE10push_stateEv
__ZN7plcrash5async15dwarf_cfa_stateIyxE11apply_stateEjPNS0_28plcrash_async_dwarf_cie_infoEPK26plcrash_async_thread_statePK23plcrash_async_byteorderPS5_
__ZN7plcrash5async15dwarf_cfa_stateIyxE12eval_programEP21plcrash_async_mobjectyyPNS0_28plcrash_async_dwarf_cie_infoEPNS0_16gnu_ehptr_readerIyEEPK23plcrash_async_byteordermlm
__ZN7plcrash5async15dwarf_cfa_stateIyxE12get_cfa_ruleEv
__ZN7plcrash5async15dwarf_cfa_stateIyxE12set_registerEjNS0_28plcrash_dwarf_cfa_reg_rule_tEy
__ZN7plcrash5async15dwarf_cfa_stateIyxE15remove_registerEj
__ZN7plcrash5async15dwarf_cfa_stateIyxE16set_cfa_registerEjy
__ZN7plcrash5async15dwarf_cfa_stateIyxE17get_register_ruleEjPNS0_28plcrash_dwarf_cfa_reg_rule_tEPy
__ZN7plcrash5async15dwarf_cfa_stateIyxE18set_cfa_expressionEmm
__ZN7plcrash5async15dwarf_cfa_stateIyxE23set_cfa_register_signedEjx
__ZN7plcrash5async15dwarf_cfa_stateIyxE9pop_stateEv
__ZN7plcrash5async15dwarf_cfa_stateIyxEC1Ev
__ZN7plcrash5async15dwarf_cfa_stateIyxEC2Ev
__ZN7plcrash5async16gnu_ehptr_readerIjE4readEP21plcrash_async_mobjectmlNS0_8DW_EH_PEEPjPm
__ZN7plcrash5async16gnu_ehptr_readerIjEC1EPK23plcrash_async_byteorder
__ZN7plcrash5async16gnu_ehptr_readerIyE4readEP21plcrash_async_mobjectmlNS0_8DW_EH_PEEPyPm
__ZN7plcrash5async16gnu_ehptr_readerIyEC1EPK23plcrash_async_byteorder
__ZN7plcrash5async24dwarf_cfa_state_iteratorIjiE4nextEPjPNS0_28plcrash_dwarf_cfa_reg_rule_tES3_
__ZN7plcrash5async24dwarf_cfa_state_iteratorIjiEC1EPNS0_15dwarf_cfa_stateIjiEE
__ZN7plcrash5async24dwarf_cfa_state_iteratorIyxE4nextEPjPNS0_28plcrash_dwarf_cfa_reg_rule_tEPy
__ZN7plcrash5async24dwarf_cfa_state_iteratorIyxEC1EPNS0_15dwarf_cfa_stateIyxEE
__ZN7plcrash5async33plcrash_async_dwarf_cie_info_initIjEE15plcrash_error_tPNS0_28plcrash_async_dwarf_cie_infoEP21plcrash_async_mobjectPK23plcrash_async_byteorderPNS0_16gnu_ehptr_readerIT_EEm
__ZN7plcrash5async33plcrash_async_dwarf_cie_info_initIyEE15plcrash_error_tPNS0_28plcrash_async_dwarf_cie_infoEP21plcrash_async_mobjectPK23plcrash_async_byteorderPNS0_16gnu_ehptr_readerIT_EEm
__ZN7plcrash5async33plcrash_async_dwarf_fde_info_initIjEE15plcrash_error_tPNS0_28plcrash_async_dwarf_fde_infoEP21plcrash_async_mobjectPK23plcrash_async_byteordermb
__ZN7plcrash5async33plcrash_async_dwarf_fde_info_initIyEE15plcrash_error_tPNS0_28plcrash_async_dwarf_fde_infoEP21plcrash_async_mobjectPK23plcrash_async_byteordermb
__ZNK5physx14NpSceneQueries10multiQueryINS_10PxSweepHitEEEbRKNS_15MultiQueryInputERNS_13PxHitCallbackIT_EENS_7PxFlagsINS_9PxHitFlag4EnumEtEEPKNS_12PxQueryCacheERKNS_17PxQueryFilterDataEPNS_21PxQueryFilterCallbackEPNS_20BatchQueryFilterDataE
__ZNK5physx14NpSceneQueries10multiQueryINS_12PxOverlapHitEEEbRKNS_15MultiQueryInputERNS_13PxHitCallbackIT_EENS_7PxFlagsINS_9PxHitFlag4EnumEtEEPKNS_12PxQueryCacheERKNS_17PxQueryFilterDataEPNS_21PxQueryFilterCallbackEPNS_20BatchQueryFilterDataE
__ZNK5physx14NpSceneQueries10multiQueryINS_12PxRaycastHitEEEbRKNS_15MultiQueryInputERNS_13PxHitCallbackIT_EENS_7PxFlagsINS_9PxHitFlag4EnumEtEEPKNS_12PxQueryCacheERKNS_17PxQueryFilterDataEPNS_21PxQueryFilterCallbackEPNS_20BatchQueryFilterDataE
__ZNK5physx2Gu5RTree11traverseRayILi0EEEvRKNS_6PxVec3ES5_jPjPNS1_15CallbackRaycastEPS4_f
__ZNK5physx2Gu5RTree11traverseRayILi1EEEvRKNS_6PxVec3ES5_jPjPNS1_15CallbackRaycastEPS4_f
__ZNKSt3__112basic_stringIcNS_11char_traitsIcEENS_9allocatorIcEEE2atEm
__ZNKSt3__112basic_stringIcNS_11char_traitsIcEENS_9allocatorIcEEE4findEcm
__ZNKSt3__112basic_stringIcNS_11char_traitsIcEENS_9allocatorIcEEE5rfindEPKcmm
__ZNKSt3__112basic_stringIcNS_11char_traitsIcEENS_9allocatorIcEEE5rfindEcm
__ZNKSt3__112basic_stringIcNS_11char_traitsIcEENS_9allocatorIcEEE7compareEPKc
__ZNKSt3__112basic_stringIcNS_11char_traitsIcEENS_9allocatorIcEEE7compareEmmPKc
__ZNKSt3__112basic_stringIcNS_11char_traitsIcEENS_9allocatorIcEEE7compareEmmPKcm
__ZNKSt3__119__shared_weak_count13__get_deleterERKSt9type_info
__ZNKSt3__120__vector_base_commonILb1EE20__throw_length_errorEv
__ZNKSt3__120__vector_base_commonILb1EE20__throw_out_of_rangeEv
__ZNKSt3__121__basic_string_commonILb1EE20__throw_length_errorEv
__ZNKSt3__121__basic_string_commonILb1EE20__throw_out_of_rangeEv
__ZNKSt3__16locale9use_facetERNS0_2idE
__ZNKSt3__18ios_base6getlocEv
__ZNKSt9exception4whatEv
__ZNSt13exception_ptrD1Ev
__ZNSt3__111__call_onceERVmPvPFvS2_E
__ZNSt3__111this_thread9sleep_forERKNS_6chrono8durationIxNS_5ratioILl1ELl1000000000EEEEE
__ZNSt3__112__next_primeEm
__ZNSt3__112basic_stringIcNS_11char_traitsIcEENS_9allocatorIcEEE2atEm
__ZNSt3__112basic_stringIcNS_11char_traitsIcEENS_9allocatorIcEEE5eraseEmm
__ZNSt3__112basic_stringIcNS_11char_traitsIcEENS_9allocatorIcEEE6__initEPKcm
__ZNSt3__112basic_stringIcNS_11char_traitsIcEENS_9allocatorIcEEE6__initEPKcmm
__ZNSt3__112basic_stringIcNS_11char_traitsIcEENS_9allocatorIcEEE6__initEmc
__ZNSt3__112basic_stringIcNS_11char_traitsIcEENS_9allocatorIcEEE6appendEPKc
__ZNSt3__112basic_stringIcNS_11char_traitsIcEENS_9allocatorIcEEE6appendEPKcm
__ZNSt3__112basic_stringIcNS_11char_traitsIcEENS_9allocatorIcEEE6appendERKS5_mm
__ZNSt3__112basic_stringIcNS_11char_traitsIcEENS_9allocatorIcEEE6appendEmc
__ZNSt3__112basic_stringIcNS_11char_traitsIcEENS_9allocatorIcEEE6assignEPKc
__ZNSt3__112basic_stringIcNS_11char_traitsIcEENS_9allocatorIcEEE6assignEPKcm
__ZNSt3__112basic_stringIcNS_11char_traitsIcEENS_9allocatorIcEEE6insertEmPKc
__ZNSt3__112basic_stringIcNS_11char_traitsIcEENS_9allocatorIcEEE6resizeEmc
__ZNSt3__112basic_stringIcNS_11char_traitsIcEENS_9allocatorIcEEE7replaceEmmPKc
__ZNSt3__112basic_stringIcNS_11char_traitsIcEENS_9allocatorIcEEE7reserveEm
__ZNSt3__112basic_stringIcNS_11char_traitsIcEENS_9allocatorIcEEE9__grow_byEmmmmmm
__ZNSt3__112basic_stringIcNS_11char_traitsIcEENS_9allocatorIcEEE9push_backEc
__ZNSt3__112basic_stringIcNS_11char_traitsIcEENS_9allocatorIcEEEC1ERKS5_
__ZNSt3__112basic_stringIcNS_11char_traitsIcEENS_9allocatorIcEEEC1ERKS5_mmRKS4_
__ZNSt3__112basic_stringIcNS_11char_traitsIcEENS_9allocatorIcEEED1Ev
__ZNSt3__112basic_stringIcNS_11char_traitsIcEENS_9allocatorIcEEEaSERKS5_
__ZNSt3__112future_errorC1ENS_10error_codeE
__ZNSt3__112future_errorD1Ev
__ZNSt3__113basic_istreamIcNS_11char_traitsIcEEED0Ev
__ZNSt3__113basic_istreamIcNS_11char_traitsIcEEED1Ev
__ZNSt3__113basic_ostreamIcNS_11char_traitsIcEEE5writeEPKcl
__ZNSt3__113basic_ostreamIcNS_11char_traitsIcEEE6sentryC1ERS3_
__ZNSt3__113basic_ostreamIcNS_11char_traitsIcEEE6sentryD1Ev
__ZNSt3__113basic_ostreamIcNS_11char_traitsIcEEED0Ev
__ZNSt3__113basic_ostreamIcNS_11char_traitsIcEEED1Ev
__ZNSt3__113basic_ostreamIcNS_11char_traitsIcEEED2Ev
__ZNSt3__113basic_ostreamIcNS_11char_traitsIcEEElsEd
__ZNSt3__113basic_ostreamIcNS_11char_traitsIcEEElsEi
__ZNSt3__113basic_ostreamIcNS_11char_traitsIcEEElsEj
__ZNSt3__113basic_ostreamIcNS_11char_traitsIcEEElsEt
__ZNSt3__113random_deviceC1ERKNS_12basic_stringIcNS_11char_traitsIcEENS_9allocatorIcEEEE
__ZNSt3__113random_deviceD1Ev
__ZNSt3__113random_deviceclEv
__ZNSt3__114basic_iostreamIcNS_11char_traitsIcEEED0Ev
__ZNSt3__114basic_iostreamIcNS_11char_traitsIcEEED1Ev
__ZNSt3__114basic_iostreamIcNS_11char_traitsIcEEED2Ev
__ZNSt3__115__thread_structC1Ev
__ZNSt3__115__thread_structD1Ev
__ZNSt3__115basic_streambufIcNS_11char_traitsIcEEE4syncEv
__ZNSt3__115basic_streambufIcNS_11char_traitsIcEEE5imbueERKNS_6localeE
__ZNSt3__115basic_streambufIcNS_11char_traitsIcEEE5uflowEv
__ZNSt3__115basic_streambufIcNS_11char_traitsIcEEE6setbufEPcl
__ZNSt3__115basic_streambufIcNS_11char_traitsIcEEE6xsgetnEPcl
__ZNSt3__115basic_streambufIcNS_11char_traitsIcEEE6xsputnEPKcl
__ZNSt3__115basic_streambufIcNS_11char_traitsIcEEE9showmanycEv
__ZNSt3__115basic_streambufIcNS_11char_traitsIcEEEC2Ev
__ZNSt3__115basic_streambufIcNS_11char_traitsIcEEED2Ev
__ZNSt3__115future_categoryEv
__ZNSt3__115recursive_mutex4lockEv
__ZNSt3__115recursive_mutex6unlockEv
__ZNSt3__115recursive_mutexC1Ev
__ZNSt3__115recursive_mutexD1Ev
__ZNSt3__118condition_variable10notify_allEv
__ZNSt3__118condition_variable10notify_oneEv
__ZNSt3__118condition_variable15__do_timed_waitERNS_11unique_lockINS_5mutexEEENS_6chrono10time_pointINS5_12system_clockENS5_8durationIxNS_5ratioILl1ELl1000000000EEEEEEE
__ZNSt3__118condition_variable4waitERNS_11unique_lockINS_5mutexEEE
__ZNSt3__118condition_variableD1Ev
__ZNSt3__119__shared_weak_count10__add_weakEv
__ZNSt3__119__shared_weak_count12__add_sharedEv
__ZNSt3__119__shared_weak_count14__release_weakEv
__ZNSt3__119__shared_weak_count16__release_sharedEv
__ZNSt3__119__shared_weak_count4lockEv
__ZNSt3__119__shared_weak_countD2Ev
__ZNSt3__119__thread_local_dataEv
__ZNSt3__120__throw_system_errorEiPKc
__ZNSt3__14cerrE
__ZNSt3__15ctypeIcE2idE
__ZNSt3__15mutex4lockEv
__ZNSt3__15mutex6unlockEv
__ZNSt3__15mutex8try_lockEv
__ZNSt3__15mutexD1Ev
__ZNSt3__16__sortIRNS_6__lessIiiEEPiEEvT0_S5_T_
__ZNSt3__16__sortIRNS_6__lessIjjEEPjEEvT0_S5_T_
__ZNSt3__16chrono12steady_clock3nowEv
__ZNSt3__16chrono12system_clock3nowEv
__ZNSt3__16futureIvED1Ev
__ZNSt3__16localeD1Ev
__ZNSt3__16thread4joinEv
__ZNSt3__16thread6detachEv
__ZNSt3__16threadD1Ev
__ZNSt3__17promiseIvE10get_futureEv
__ZNSt3__17promiseIvE13set_exceptionESt13exception_ptr
__ZNSt3__17promiseIvE9set_valueEv
__ZNSt3__17promiseIvEC1Ev
__ZNSt3__17promiseIvED1Ev
__ZNSt3__18ios_base33__set_badbit_and_consider_rethrowEv
__ZNSt3__18ios_base4initEPv
__ZNSt3__18ios_base5clearEj
__ZNSt3__19basic_iosIcNS_11char_traitsIcEEED2Ev
__ZNSt3__19to_stringEi
__ZNSt9exceptionD2Ev
__ZSt17current_exceptionv
__ZSt7nothrow
__ZSt9terminatev
__ZTIN5physx23PxVehicleRepXSerializerINS_16PxVehicleDrive4WEEE
__ZTIN5physx23PxVehicleRepXSerializerINS_16PxVehicleDriveNWEEE
__ZTIN5physx23PxVehicleRepXSerializerINS_16PxVehicleNoDriveEEE
__ZTIN5physx23PxVehicleRepXSerializerINS_18PxVehicleDriveTankEEE
__ZTINSt3__112future_errorE
__ZTINSt3__113basic_istreamIcNS_11char_traitsIcEEEE
__ZTINSt3__113basic_ostreamIcNS_11char_traitsIcEEEE
__ZTINSt3__114basic_iostreamIcNS_11char_traitsIcEEEE
__ZTINSt3__115basic_streambufIcNS_11char_traitsIcEEEE
__ZTINSt3__119__shared_weak_countE
__ZTISt9bad_alloc
__ZTISt9exception
__ZTSN5physx23PxVehicleRepXSerializerINS_16PxVehicleDrive4WEEE
__ZTSN5physx23PxVehicleRepXSerializerINS_16PxVehicleDriveNWEEE
__ZTSN5physx23PxVehicleRepXSerializerINS_16PxVehicleNoDriveEEE
__ZTSN5physx23PxVehicleRepXSerializerINS_18PxVehicleDriveTankEEE
__ZTVN10__cxxabiv117__class_type_infoE
__ZTVN10__cxxabiv119__pointer_type_infoE
__ZTVN10__cxxabiv120__function_type_infoE
__ZTVN10__cxxabiv120__si_class_type_infoE
__ZTVN10__cxxabiv121__vmi_class_type_infoE
__ZTVN5physx23PxVehicleRepXSerializerINS_16PxVehicleDrive4WEEE
__ZTVN5physx23PxVehicleRepXSerializerINS_16PxVehicleDriveNWEEE
__ZTVN5physx23PxVehicleRepXSerializerINS_16PxVehicleNoDriveEEE
__ZTVN5physx23PxVehicleRepXSerializerINS_18PxVehicleDriveTankEEE
__ZTVNSt3__114__shared_countE
__ZTVNSt3__119__shared_weak_countE
__ZTVNSt3__18ios_baseE
__ZTVNSt3__19basic_iosIcNS_11char_traitsIcEEEE
__ZTVSt9exception
__ZThn16_NSt3__114basic_iostreamIcNS_11char_traitsIcEEED0Ev
__ZThn16_NSt3__114basic_iostreamIcNS_11char_traitsIcEEED1Ev
__ZTv0_n24_NSt3__113basic_istreamIcNS_11char_traitsIcEEED0Ev
__ZTv0_n24_NSt3__113basic_istreamIcNS_11char_traitsIcEEED1Ev
__ZTv0_n24_NSt3__113basic_ostreamIcNS_11char_traitsIcEEED0Ev
__ZTv0_n24_NSt3__113basic_ostreamIcNS_11char_traitsIcEEED1Ev
__ZTv0_n24_NSt3__114basic_iostreamIcNS_11char_traitsIcEEED0Ev
__ZTv0_n24_NSt3__114basic_iostreamIcNS_11char_traitsIcEEED1Ev
___CFConstantStringClassReference
___assert_rtn
___cxa_allocate_exception
___cxa_atexit
___cxa_begin_catch
___cxa_call_unexpected
___cxa_end_catch
___cxa_free_exception
___cxa_guard_abort
___cxa_guard_acquire
___cxa_guard_release
___cxa_pure_virtual
___cxa_rethrow
___cxa_throw
___error
___exp10
___gxx_personality_v0
___maskrune
___memcpy_chk
___memmove_chk
___memset_chk
___objc_personality_v0
___sincos_stret
___sincosf_stret
___snprintf_chk
___stack_chk_fail
___stack_chk_guard
___stderrp
___stdinp
___stdoutp
___strlcat_chk
___strlcpy_chk
___strncat_chk
___tolower
___vsnprintf_chk
__dispatch_main_q
__dyld_get_image_name
__dyld_get_image_vmaddr_slide
__dyld_image_count
__dyld_register_func_for_add_image
__dyld_register_func_for_remove_image
__mh_execute_header
__objc_empty_cache
__objc_empty_vtable
__setjmp
_abort
_accept
_access
_acos
_acosf
_arc4random
_arc4random_uniform
_asin
_asinf
_asprintf
_atan
_atan2
_atan2f
_atanf
_atexit
_atoi
_atol
_backtrace
_bcopy
_bind
_bsearch
_bzero
_calloc
_ceil
_ceilf
_class_addMethod
_class_addProperty
_class_addProtocol
_class_conformsToProtocol
_class_copyPropertyList
_class_getClassMethod
_class_getInstanceMethod
_class_getInstanceVariable
_class_getName
_class_getProperty
_class_getSuperclass
_class_isMetaClass
_class_replaceMethod
_clearerr
_clock
_close
_closedir
_confstr
_connect
_cos
_cosf
_deflate
_deflateEnd
_deflateInit2_
_difftime
_dispatch_after
_dispatch_async
_dispatch_data_create
_dispatch_data_create_concat
_dispatch_data_create_map
_dispatch_data_create_subrange
_dispatch_get_global_queue
_dispatch_group_async
_dispatch_group_create
_dispatch_group_enter
_dispatch_group_leave
_dispatch_group_notify
_dispatch_group_wait
_dispatch_once
_dispatch_queue_create
_dispatch_release
_dispatch_semaphore_create
_dispatch_semaphore_signal
_dispatch_semaphore_wait
_dispatch_sync
_dispatch_time
_dladdr
_dlclose
_dlerror
_dlopen
_dlsym
_exception_raise
_exception_raise_state
_exception_raise_state_identity
_exit
_exp
_exp2
_exp2f
_expf
_fabs
_fabsf
_fchmod
_fchown
_fclose
_fcntl
_fegetenv
_feof
_ferror
_fesetenv
_fflush
_fileno
_flock
_floor
_fmod
_fmodf
_fopen
_fork
_fprintf
_fputc
_fread
_free
_freeaddrinfo
_freeifaddrs
_freelocale
_frexp
_fsctl
_fseek
_fstat
_fstatfs
_fsync
_ftell
_ftruncate
_futimes
_fwrite
_gai_strerror
_getaddrinfo
_getc
_getcwd
_getenv
_geteuid
_gethostbyname
_gethostname
_getifaddrs
_getnameinfo
_getpagesize
_getpid
_getprogname
_getpwuid
_getsockname
_getsockopt
_gettimeofday
_getuid
_glBindRenderbuffer
_glBindTexture
_glBlitFramebuffer
_glDeleteFramebuffers
_glDeleteRenderbuffers
_glDeleteTextures
_glDiscardFramebufferEXT
_glFinish
_glFramebufferRenderbuffer
_glFramebufferTexture2D
_glGenFramebuffers
_glGenRenderbuffers
_glGenTextures
_glGetError
_glGetIntegerv
_glInvalidateFramebuffer
_glRenderbufferStorage
_glRenderbufferStorageMultisample
_glRenderbufferStorageMultisampleAPPLE
_glResolveMultisampleFramebufferAPPLE
_glTexImage2D
_glTexParameteri
_gmtime
_hash_create
_hash_search
_host_page_size
_host_statistics
_inet_addr
_inet_aton
_inet_ntoa
_inet_ntop
_inet_pton
_inflate
_inflateEnd
_inflateInit2_
_ioctl
_kABGroupNameProperty
_kABPersonFirstNameProperty
_kABPersonLastNameProperty
_kCFAllocatorDefault
_kCFAllocatorSystemDefault
_kCFBooleanTrue
_kCFBundleIdentifierKey
_kCFBundleVersionKey
_kCFCoreFoundationVersionNumber
_kCFRunLoopDefaultMode
_kCLDistanceFilterNone
_kCLLocationAccuracyBest
_kCLLocationAccuracyHundredMeters
_kCLLocationAccuracyKilometer
_kCLLocationAccuracyNearestTenMeters
_kCLLocationAccuracyThreeKilometers
_kCMTimeZero
_kCTFontFamilyNameAttribute
_kCTFontNameAttribute
_kCTFontStyleNameAttribute
_kCTFontSymbolicTrait
_kCTFontTraitsAttribute
_kCTFontURLAttribute
_kCVPixelBufferHeightKey
_kCVPixelBufferIOSurfacePropertiesKey
_kCVPixelBufferMetalCompatibilityKey
_kCVPixelBufferOpenGLESCompatibilityKey
_kCVPixelBufferPixelFormatTypeKey
_kCVPixelBufferWidthKey
_kEAGLColorFormatRGBA8
_kEAGLDrawablePropertyColorFormat
_kEAGLDrawablePropertyRetainedBacking
_kSecAttrAccessible
_kSecAttrAccessibleAfterFirstUnlock
_kSecAttrAccessibleAfterFirstUnlockThisDeviceOnly
_kSecAttrAccount
_kSecAttrApplicationTag
_kSecAttrGeneric
_kSecAttrKeyClass
_kSecAttrKeyClassPrivate
_kSecAttrKeyClassPublic
_kSecAttrKeyType
_kSecAttrKeyTypeRSA
_kSecAttrLabel
_kSecAttrService
_kSecClass
_kSecClassGenericPassword
_kSecClassKey
_kSecMatchLimit
_kSecMatchLimitOne
_kSecRandomDefault
_kSecReturnData
_kSecReturnRef
_kSecValueData
_ldexp
_listen
_localtime
_log
_log10
_log10f
_log2f
_logf
_longjmp
_lseek
_lstat
_mach_absolute_time
_mach_host_self
_mach_make_memory_entry_64
_mach_msg
_mach_port_allocate
_mach_port_deallocate
_mach_port_insert_right
_mach_port_mod_refs
_mach_port_move_member
_mach_port_request_notification
_mach_task_self_
_mach_thread_self
_mach_timebase_info
_malloc
_malloc_create_zone
_malloc_default_zone
_malloc_destroy_zone
_malloc_set_zone_name
_malloc_size
_malloc_zone_free
_malloc_zone_malloc
_malloc_zone_realloc
_memchr
_memcmp
_memcpy
_memmove
_memset
_memset_pattern16
_method_getTypeEncoding
_method_invoke
_method_setImplementation
_mkdir
_mkstemp
_mktime
_mmap
_modf
_modff
_mprotect
_munmap
_nanosleep
_newlocale
_objc_allocateClassPair
_objc_autorelease
_objc_autoreleasePoolPop
_objc_autoreleasePoolPush
_objc_autoreleaseReturnValue
_objc_begin_catch
_objc_constructInstance
_objc_copyClassNamesForImage
_objc_copyWeak
_objc_destroyWeak
_objc_end_catch
_objc_enumerationMutation
_objc_exception_rethrow
_objc_exception_throw
_objc_getClass
_objc_getMetaClass
_objc_getProperty
_objc_getProtocol
_objc_getRequiredClass
_objc_initWeak
_objc_initializeClassPair
_objc_loadWeakRetained
_objc_lookUpClass
_objc_msgSend
_objc_msgSendSuper
_objc_msgSendSuper2
_objc_readClassPair
_objc_registerClassPair
_objc_release
_objc_retain
_objc_retainAutorelease
_objc_retainAutoreleaseReturnValue
_objc_retainAutoreleasedReturnValue
_objc_retainBlock
_objc_setProperty_atomic
_objc_setProperty_atomic_copy
_objc_setProperty_nonatomic
_objc_setProperty_nonatomic_copy
_objc_storeStrong
_objc_storeWeak
_objc_sync_enter
_objc_sync_exit
_objc_terminate
_object_getClass
_object_getIndexedIvars
_object_getIvar
_open
_opendir
_perror
_pipe
_poll
_posix_memalign
_pow
_powf
_pread
_printf
_property_copyAttributeList
_property_getAttributes
_property_getName
_protocol_getMethodDescription
_protocol_getName
_pthread_atfork
_pthread_attr_destroy
_pthread_attr_init
_pthread_attr_setdetachstate
_pthread_attr_setschedparam
_pthread_attr_setschedpolicy
_pthread_attr_setstacksize
_pthread_cond_broadcast
_pthread_cond_destroy
_pthread_cond_init
_pthread_cond_signal
_pthread_cond_timedwait
_pthread_cond_timedwait_relative_np
_pthread_cond_wait
_pthread_condattr_destroy
_pthread_condattr_init
_pthread_create
_pthread_detach
_pthread_equal
_pthread_get_stackaddr_np
_pthread_getschedparam
_pthread_getspecific
_pthread_join
_pthread_key_create
_pthread_key_delete
_pthread_mach_thread_np
_pthread_mutex_destroy
_pthread_mutex_init
_pthread_mutex_lock
_pthread_mutex_trylock
_pthread_mutex_unlock
_pthread_mutexattr_destroy
_pthread_mutexattr_init
_pthread_mutexattr_settype
_pthread_self
_pthread_setcancelstate
_pthread_setname_np
_pthread_setschedparam
_pthread_setspecific
_putchar
_puts
_pwrite
_qsort
_raise
_rand
_random
_read
_readdir
_readlink
_realloc
_recv
_recvfrom
_regcomp
_regerror
_regexec
_regfree
_remainder
_removexattr
_rename
_rmdir
_round
_roundf
_sched_get_priority_max
_sched_get_priority_min
_sched_yield
_sel_getUid
_sel_registerName
_select
_semaphore_create
_semaphore_destroy
_semaphore_signal
_semaphore_wait
_send
_sendto
_setenv
_setjmp
_setlocale
_setsockopt
_setxattr
_shutdown
_sigaction
_sigaltstack
_signal
_sin
_sinf
_sleep
_snprintf
_socket
_sprintf
_sqrt
_srandomdev
_sscanf
_stat
_statfs
_statvfs
_strcasecmp
_strchr
_strcmp
_strcpy
_strdup
_strerror
_strftime
_strlcpy
_strlen
_strncasecmp
_strncat
_strncmp
_strncpy
_strrchr
_strstr
_strtod
_strtod_l
_strtof
_strtol
_strtoll
_strtoul
_strtoull
_sysconf
_sysctl
_sysctlbyname
_system
_tan
_tanf
_task_get_exception_ports
_task_swap_exception_ports
_task_threads
_thread_get_exception_ports
_thread_get_state
_thread_resume
_thread_suspend
_thread_swap_exception_ports
_time
_truncate
_uname
_unlink
_unsetenv
_usleep
_utimes
_uuid_generate
_vfprintf
_vm_allocate
_vm_deallocate
_vm_map
_vm_page_mask
_vm_page_size
_vm_read_overwrite
_vprintf
_vsnprintf
_vsprintf
_vswprintf
_wcscpy
_wcslen
_write
dyld_stub_binder
